(dp0
(S'got'
p1
S'into'
p2
tp3
I2151845
s(S'state'
p4
S'building'
p5
tp6
I36554
s(S'wish'
p7
S'and'
p8
tp9
I192409
s(S'million'
p10
S'twice'
p11
tp12
I113
s(S'year'
p13
S'drought'
p14
tp15
I8159
s(S'him'
p16
S'did'
p17
tp18
I112251
s(S'through'
p19
S'closing'
p20
tp21
I1879
s(S'chief'
p22
S'but'
p23
tp24
I8455
s(S'its'
p25
S'seldom'
p26
tp27
I545
s(S'prepared'
p28
S'for'
p29
tp30
I4109058
s(S'wrong'
p31
S'color'
p32
tp33
I16322
s(S'on'
p34
S'a'
p35
tp36
I95190038
s(S'significantly'
p37
S'in'
p38
tp39
I248319
s(S'it'
p40
S'looks'
p41
tp42
I1409055
s(S'because'
p43
S'whatever'
p44
tp45
I35446
s(S'me'
p46
S'was'
p47
tp48
I1098746
s(S'cutting'
p49
S'out'
p50
tp51
I216474
s(S'goatee'
p52
S'on'
p53
tp54
I1155
s(S'and'
p55
S'an'
p56
tp57
I21406299
s(S'line'
p58
S'the'
p59
tp60
I536920
s(S'injury'
p61
S'_END_'
p62
tp63
I14462
s(S'the'
p64
S'cliffycam'
p65
tp66
I0
s(S'five'
p67
S'knives'
p68
tp69
I940
s(S'with'
p70
S'him'
p71
tp72
I23793358
s(S'its'
p73
S'hardness'
p74
tp75
I43218
s(S'collected'
p76
S'_END_'
p77
tp78
I6941
s(S'international'
p79
S'refugees'
p80
tp81
I971
s(S'sams'
p82
S'had'
p83
tp84
I0
s(S'seventy'
p85
S'ninth'
p86
tp87
I166
s(S'two'
p88
g22
tp89
I167097
s(S'ready'
p90
S'to'
p91
tp92
I14925831
s(S'the'
p93
S'world'
p94
tp95
I78707969
s(S'brown'
p96
S'fields'
p97
tp98
I9087
s(S'i'
p99
S'found'
p100
tp101
I10412
s(S'still'
p102
S'in'
p103
tp104
I5678621
s(S'and'
p105
S'leaving'
p106
tp107
I878119
s(S'an'
p108
S'eight'
p109
tp110
I637258
s(S'floor'
p111
S'_END_'
p112
tp113
I21561
s(S'full'
p114
S'of'
p115
tp116
I16082670
s(S'high'
p117
S'church'
p118
tp119
I34594
s(S'industry'
p120
S'that'
p121
tp122
I293524
s(S'who'
p123
S'cuts'
p124
tp125
I35396
s(g35
S'sequel'
p126
tp127
I199521
s(S'karyn'
p128
S'told'
p129
tp130
I0
s(S'richtig'
p131
S'experiment'
p132
tp133
I0
s(S'marine'
p134
S'organisms'
p135
tp136
I67620
s(S'morning'
p137
S'the'
p138
tp139
I905566
s(S'shaft'
p140
S'_END_'
p141
tp142
I10822
s(S'rutted'
p143
S'dirt'
p144
tp145
I9503
s(S'then'
p146
S'the'
p147
tp148
I16826417
s(S'not'
p149
S'for'
p150
tp151
I7666925
s(S'b'
p152
S'25'
p153
tp154
I47526
s(S'nor'
p155
S'did'
p156
tp157
I1502354
s(S'where'
p158
S'his'
p159
tp160
I2146279
s(S'intercom'
p161
S'button'
p162
tp163
I11087
s(S'visit'
p164
S'kramer'
p165
tp166
I0
s(S'dehydrate'
p167
S'him'
p168
tp169
I100
s(S'frayed'
p170
S'rope'
p171
tp172
I4602
s(g35
S'fire'
p173
tp174
I2997340
s(S'one'
p175
S'had'
p176
tp177
I2418214
s(S'after'
p178
g35
tp179
I15871222
s(S'oil'
p180
S'which'
p181
tp182
I100724
s(S'journalists'
p183
S'if'
p184
tp185
I544
s(S'allergic'
p186
S'to'
p187
tp188
I252908
s(S'stepped'
p189
S'out'
p190
tp191
I1030170
s(S'national'
p192
S'elevator'
p193
tp194
I0
s(S'the'
p195
S'mainland'
p196
tp197
I1223642
s(S'white'
p198
S'snakeskin'
p199
tp200
I153
s(S'to'
p201
S'fear'
p202
tp203
I1833070
s(S'still'
p204
S'he'
p205
tp206
I415870
s(S'_START_'
p207
S'kramers'
p208
tp209
I0
s(S'he'
p210
S'told'
p211
tp212
I5577356
s(S'by'
p213
S'four'
p214
tp215
I1003517
s(S'he'
p216
S'occupied'
p217
tp218
I197444
s(S'could'
p219
S'have'
p220
tp221
I18420945
s(g35
S'model'
p222
tp223
I4083962
s(S'the'
p224
S'360s'
p225
tp226
I1756
s(S'would'
p227
S'have'
p228
tp229
I63784823
s(S'heated'
p230
S'their'
p231
tp232
I3600
s(S'form'
p233
g35
tp234
I7468636
s(S'estimated'
p235
S'two'
p236
tp237
I16962
s(S'tiny'
p238
S'moussed'
p239
tp240
I0
s(S'antnio'
p241
S'guterres'
p242
tp243
I0
s(S'rang'
p244
S'it'
p245
tp246
I16915
s(S'removed'
p247
S'their'
p248
tp249
I77201
s(S'early'
p250
S'clooney'
p251
tp252
I0
s(S'game'
p253
S'he'
p254
tp255
I95404
s(g32
S'and'
p256
tp257
I1821127
s(S'eleven'
p258
S'oclock'
p259
tp260
I1147
s(S'kramers'
p261
S'favorite'
p262
tp263
I0
s(S'time'
p264
S'an'
p265
tp266
I528337
s(S'did'
p267
S'not'
p268
tp269
I158235126
s(S'are'
p270
S'designed'
p271
tp272
I1723655
s(S'his'
p273
g131
tp274
I0
s(S'setting'
p275
S'off'
p276
tp277
I204077
s(S'ritual'
p278
S'over'
p279
tp280
I2885
s(S'well'
p281
S'_END_'
p282
tp283
I51322
s(S'aneurysm'
p284
S'ruptured'
p285
tp286
I478
s(S'receipts'
p287
S'or'
p288
tp289
I34444
s(g265
S'attempt'
p290
tp291
I5495074
s(S'and'
p292
S'slows'
p293
tp294
I32178
s(S'which'
p295
S'is'
p296
tp297
I80333963
s(S'good'
p298
S'fortune'
p299
tp300
I1468462
s(S'from'
p301
S'warming'
p302
tp303
I3134
s(S'cars'
p304
S'had'
p305
tp306
I76350
s(S'ps3coder'
p307
g35
tp308
I0
s(S'until'
p309
S'this'
p310
tp311
I615163
s(S'abruptly'
p312
S'as'
p313
tp314
I73111
s(S'equipment'
p315
S'get'
p316
tp317
I805
s(S'knife'
p318
S'weve'
p319
tp320
I0
s(S'sloop'
p321
g35
tp322
I721
s(S'metallurgists'
p323
S'_END_'
p324
tp325
I88
s(S'sitting'
p326
S'in'
p327
tp328
I2781575
s(S'in'
p329
S'various'
p330
tp331
I6114812
s(S'terrestrial'
p332
S'ecosystems'
p333
tp334
I22083
s(S'old'
p335
S'swords'
p336
tp337
I4415
s(S'he'
p338
S'wrapped'
p339
tp340
I84182
s(S'blade'
p341
S'has'
p342
tp343
I15456
s(S'bladelike'
p344
S'point'
p345
tp346
I0
s(S'an'
p347
S'unadorned'
p348
tp349
I12035
s(S'hunting'
p350
S'hollows'
p351
tp352
I0
s(S'wind'
p353
S'power'
p354
tp355
I61613
s(S'to'
p356
S'say'
p357
tp358
I40678773
s(S'glacial'
p359
S'runoff'
p360
tp361
I1066
s(g35
S'hundred'
p362
tp363
I8731644
s(S'tv'
p364
S'_END_'
p365
tp366
I1969
s(S'his'
p367
S'father'
p368
tp369
I16127307
s(S'much'
p370
S'interested'
p371
tp372
I421814
s(S'overwhelming'
p373
S'experience'
p374
tp375
I11484
s(S'in'
p376
S'fact'
p377
tp378
I20065004
s(S'design'
p379
g35
tp380
I518265
s(S'and'
p381
S'to'
p382
tp383
I85567343
s(S'take'
p384
S'off'
p385
tp386
I1305747
s(S'were'
p387
S'about'
p388
tp389
I2312834
s(S'rendering'
p390
S'the'
p391
tp392
I402534
s(S'elevator'
p393
S'car'
p394
tp395
I12003
s(S'la'
p396
S'table'
p397
tp398
I22115
s(S'alarm'
p399
S'was'
p400
tp401
I123739
s(S'_START_'
p402
S'white'
p403
tp404
I480704
s(S'does'
p405
S'not'
p406
tp407
I95894265
s(S'the'
p408
S'landing'
p409
tp410
I1209700
s(S'alloy'
p411
S'called'
p412
tp413
I3502
s(S'inch'
p414
S'bowie'
p415
tp416
I379
s(S'awaiting'
p417
S'the'
p418
tp419
I491757
s(g35
S'corner'
p420
tp421
I2131090
s(S'gradually'
p422
S'migrate'
p423
tp424
I1386
s(S'four'
p425
S'tasks'
p426
tp427
I13406
s(S'shoes'
p428
S'that'
p429
tp430
I110299
s(S'that'
p431
S'title'
p432
tp433
I267264
s(S'make'
p434
S'that'
p435
tp436
I1094291
s(S'standing'
p437
S'on'
p438
tp439
I1751178
s(S'its'
p440
S'maximum'
p441
tp442
I526669
s(S'and'
p443
S'he'
p444
tp445
I60848286
s(S'sensually'
p446
g373
tp447
I0
s(S'kramer'
p448
S'picked'
p449
tp450
I0
s(S'feeling'
p451
S'was'
p452
tp453
I412268
s(g35
S'year'
p454
tp455
I16793017
s(S'scrambled'
p456
S'into'
p457
tp458
I30357
s(S'were'
p459
S'higher'
p460
tp461
I241851
s(S'which'
p462
S'according'
p463
tp464
I152550
s(S'of'
p465
S'nowhere'
p466
tp467
I356759
s(g342
S'reached'
p468
tp469
I1052612
s(S'kramer'
p470
S'had'
p471
tp472
I0
s(S'one'
p473
S'is'
p474
tp475
I9002454
s(S'hundred'
p476
S'inhabitants'
p477
tp478
I49994
s(S'kramers'
p479
S'itineraries'
p480
tp481
I0
s(S'2001'
p482
S'some'
p483
tp484
I495
s(S'it'
p485
S'sickening'
p486
tp487
I749
s(S'fathers'
p488
S'pre'
p489
tp490
I0
s(S'designed'
p491
S'to'
p492
tp493
I10876491
s(S'the'
p494
S'thirty'
p495
tp496
I1187977
s(g35
S'third'
p497
tp498
I7762597
s(S'knife'
p499
S'outperformed'
p500
tp501
I0
s(S'importing'
p502
S'electricity'
p503
tp504
I145
s(S'that'
p505
S'line'
p506
tp507
I734073
s(S'were'
p508
S'strewn'
p509
tp510
I85942
s(S'were'
p511
S'their'
p512
tp513
I639321
s(S'last'
p514
S'resort'
p515
tp516
I713392
s(S'rammings'
p517
S'most'
p518
tp519
I0
s(S'five'
p520
S'dollars'
p521
tp522
I857259
s(S'earring'
p523
S'_END_'
p524
tp525
I167
s(S'of'
p526
g315
tp527
I1453464
s(S'in'
p528
S'aggregate'
p529
tp530
I153111
s(S'heather'
p531
S'chaplin'
p532
tp533
I0
s(S'jacket'
p534
S'headed'
p535
tp536
I0
s(S'eleven'
p537
S'tons'
p538
tp539
I3015
s(S'which'
p540
S'aids'
p541
tp542
I42431
s(g147
S'elevator'
p543
tp544
I1116568
s(S'throwing'
p545
S'in'
p546
tp547
I76820
s(S'the'
p548
S'following'
p549
tp550
I57831020
s(S'brittle'
p551
S'_END_'
p552
tp553
I1026
s(S'replaced'
p554
S'them'
p555
tp556
I111546
s(S'bleached'
p557
S'hair'
p558
tp559
I14526
s(S'trapdoor'
p560
S'which'
p561
tp562
I685
s(S'borne'
p563
S'aloft'
p564
tp565
I27687
s(g29
S'his'
p566
tp567
I34467476
s(g35
S'degree'
p568
tp569
I3409352
s(S'ends'
p570
S'up'
p571
tp572
I477682
s(S'he'
p573
S'argued'
p574
tp575
I623958
s(S'on'
p576
S'average'
p577
tp578
I928659
s(S'inside'
p579
S'the'
p580
tp581
I6540638
s(S'lot'
p582
S'we'
p583
tp584
I18921
s(S'than'
p585
S'an'
p586
tp587
I4021921
s(S'is'
p588
S'shorthand'
p589
tp590
I15181
s(g173
S'_END_'
p591
tp592
I28929
s(S'knife'
p593
g35
tp594
I12408
s(g208
S'backlog'
p595
tp596
I0
s(S'along'
p597
S'by'
p598
tp599
I369589
s(S'office'
p600
g287
tp601
I29432
s(S'chopping'
p602
S'shave'
p603
tp604
I0
s(S'game'
p605
S'for'
p606
tp607
I329212
s(g106
S'behind'
p608
tp609
I410481
s(S'in'
p610
S'1990'
p611
tp612
I1167352
s(S'an'
p613
S'aortic'
p614
tp615
I29466
s(S'listened'
p616
S'to'
p617
tp618
I3332120
s(S'swipe'
p619
S'chop'
p620
tp621
I0
s(S'lifted'
p622
S'by'
p623
tp624
I116322
s(S'shirt'
p625
S'that'
p626
tp627
I106417
s(S'and'
p628
S'white'
p629
tp630
I5106155
s(S'richtig'
p631
S'_END_'
p632
tp633
I0
s(S'last'
p634
g588
tp635
I383158
s(S'car'
p636
S'compressed'
p637
tp638
I0
s(g35
S'device'
p639
tp640
I1311135
s(S'fires'
p641
S'drownings'
p642
tp643
I0
s(S'ropes'
p644
S'as'
p645
tp646
I10108
s(S'possibly'
p647
S'as'
p648
tp649
I127642
s(S'and'
p650
S'for'
p651
tp652
I29022393
s(S'alone'
p653
S'_END_'
p654
tp655
I28864
s(g103
S'use'
p656
tp657
I3378910
s(S'rails'
p658
S'in'
p659
tp660
I40501
s(S'its'
p661
S'descent'
p662
tp663
I99554
s(S'dusty'
p664
g335
tp665
I18897
s(S'of'
p666
S'steels'
p667
tp668
I33886
s(S'sure'
p669
g99
tp670
I2230
s(S'legendary'
p671
S'achievements'
p672
tp673
I335
s(S'alert'
p674
S'_END_'
p675
tp676
I1677
s(S'temperature'
p677
S'increase'
p678
tp679
I59645
s(S'in'
p680
S'his'
p681
tp682
I114943121
s(S'tranberg'
p683
S'is'
p684
tp685
I0
s(S'or'
p686
S'seasonal'
p687
tp688
I44286
s(S'felt'
p689
g35
tp690
I3266814
s(S'in'
p691
S'1936'
p692
tp693
I774389
s(S'in'
p694
S'olympia'
p695
tp696
I0
s(S'to'
p697
S'such'
p698
tp699
I9792643
s(S'thick'
p700
S'piece'
p701
tp702
I19326
s(S'just'
p703
S'the'
p704
tp705
I6271872
s(S'special'
p706
S'people'
p707
tp708
I54780
s(S'killing'
p709
S'the'
p710
tp711
I425455
s(S'man'
p712
S'was'
p713
tp714
I4816815
s(S'limited'
p715
S'_END_'
p716
tp717
I7625
s(S'they'
p718
S'werent'
p719
tp720
I789
s(S'had'
p721
S'walked'
p722
tp723
I578881
s(S'performer'
p724
g650
tp725
I64863
s(S'whenever'
p726
S'they'
p727
tp728
I716268
s(S'of'
p729
S'these'
p730
tp731
I94887245
s(S'united'
p732
S'states'
p733
tp734
I78485
s(S'ice'
p735
S'the'
p736
tp737
I32159
s(S'golfing'
p738
S'_END_'
p739
tp740
I48
s(S'talked'
p741
S'for'
p742
tp743
I218244
s(S'slightly'
p744
S'the'
p745
tp746
I62471
s(S'the'
p747
S'days'
p748
tp749
I5706311
s(g730
S'challenges'
p750
tp751
I127940
s(S'sea'
p752
S'_END_'
p753
tp754
I25093
s(S'button'
p755
S'out'
p756
tp757
I2198
s(S'and'
p758
S'canada'
p759
tp760
I457
s(S'started'
p761
S'up'
p762
tp763
I637418
s(S'ferrari'
p764
S'another'
p765
tp766
I0
s(S'the'
p767
g140
tp768
I1396800
s(S'so'
p769
S'sams'
p770
tp771
I0
s(S'when'
p772
S'the'
p773
tp774
I74920124
s(S'even'
p775
S'small'
p776
tp777
I158147
s(S'discarded'
p778
S'christmas'
p779
tp780
I0
s(S'the'
p781
S'companys'
p782
tp783
I2198
s(S'an'
p784
S'entire'
p785
tp786
I2741588
s(S'say'
p787
S'that'
p788
tp789
I21104354
s(S'phone'
p790
S'_END_'
p791
tp792
I5633
s(S'of'
p793
S'knifeness'
p794
tp795
I0
s(S'that'
p796
S'hed'
p797
tp798
I2988
s(S'caesar'
p799
S'cut'
p800
tp801
I0
s(S'its'
p802
S'own'
p803
tp804
I21395924
s(S'the'
p805
S'womans'
p806
tp807
I2568
s(S'nineties'
p808
S'the'
p809
tp810
I11847
s(S'an'
p811
g250
tp812
I4909672
s(g74
S'_END_'
p813
tp814
I4069
s(S'end'
p815
S'and'
p816
tp817
I1367925
s(S'most'
p818
S'game'
p819
tp820
I5862
s(S'now'
p821
S'counts'
p822
tp823
I5332
s(S'jeans'
p824
S'obviously'
p825
tp826
I0
s(S'think'
p827
S'of'
p828
tp829
I15327420
s(S'causing'
p830
S'the'
p831
tp832
I1393127
s(S'travelling'
p833
S'at'
p834
tp835
I43158
s(S'forging'
p836
S'of'
p837
tp838
I58055
s(S'went'
p839
S'out'
p840
tp841
I5122065
s(S'cigarettes'
p842
S'_END_'
p843
tp844
I1751
s(S'use'
p845
S'on'
p846
tp847
I712511
s(S'my'
p848
S'surroundings'
p849
tp850
I56216
s(S'was'
p851
S'bestowed'
p852
tp853
I108056
s(S'this'
p854
S'nightly'
p855
tp856
I4553
s(S'road'
p857
S'_END_'
p858
tp859
I22447
s(S'of'
p860
S'watching'
p861
tp862
I328625
s(S'twenty'
p863
S'two'
p864
tp865
I27207
s(g394
S'but'
p866
tp867
I42560
s(S'waved'
p868
g597
tp869
I1295
s(S'we'
p870
g456
tp871
I14413
s(S'all'
p872
S'manner'
p873
tp874
I910469
s(S'of'
p875
S'human'
p876
tp877
I16760192
s(S'watching'
p878
S'grainy'
p879
tp880
I63
s(S'for'
p881
S'play'
p882
tp883
I150165
s(g35
S'pyrometer'
p884
tp885
I6387
s(S'began'
p886
S'in'
p887
tp888
I2418845
s(S'have'
p889
S'died'
p890
tp891
I1210404
s(S'the'
p892
S'lines'
p893
tp894
I5109894
s(S'capabilities'
p895
S'its'
p896
tp897
I113
s(S'and'
p898
S'by'
p899
tp900
I25306235
s(S'consumption'
p901
S'of'
p902
tp903
I1798530
s(S'him'
p904
S'when'
p905
tp906
I1912481
s(S'believed'
p907
S'that'
p908
tp909
I7666490
s(S'and'
p910
S'immediately'
p911
tp912
I1696518
s(S'railroad'
p913
S'spikes'
p914
tp915
I3462
s(S'_START_'
p916
S'inside'
p917
tp918
I108068
s(S'refugees'
p919
g241
tp920
I0
s(g756
S'so'
p921
tp922
I670905
s(S'commissioner'
p923
S'for'
p924
tp925
I76812
s(S'patterns'
p926
S'in'
p927
tp928
I934437
s(S'surrounding'
p929
S'the'
p930
tp931
I1943583
s(S'thanks'
p932
S'to'
p933
tp934
I3300803
s(S'tight'
p935
S'fashionably'
p936
tp937
I0
s(S'inch'
p938
S'chefs'
p939
tp940
I154
s(S'founded'
p941
S'upon'
p942
tp943
I630984
s(S'warming'
p944
S'are'
p945
tp946
I5508
s(S'himself'
p947
g35
tp948
I2671031
s(S'_START_'
p949
S'kramer'
p950
tp951
I554
s(S'30'
p952
S'and'
p953
tp954
I520060
s(S'the'
p955
S'like'
p956
tp957
I4507157
s(S'simmers'
p958
S'near'
p959
tp960
I0
s(S'could'
p961
S'tell'
p962
tp963
I2334739
s(S'corporate'
p964
S'park'
p965
tp966
I496
s(S'years'
p967
S'to'
p968
tp969
I3702976
s(S'electricity'
p970
S'friction'
p971
tp972
I0
s(S'the'
p973
S'roof'
p974
tp975
I3804508
s(S'as'
p976
g281
tp977
I84228537
s(S'farming'
p978
S'community'
p979
tp980
I65983
s(S'scattering'
p981
S'of'
p982
tp983
I378298
s(S'designed'
p984
S'speed'
p985
tp986
I2286
s(S'more'
p987
S'times'
p988
tp989
I453133
s(S'often'
p990
S'melt'
p991
tp992
I1001
s(S'only'
p993
S'former'
p994
tp995
I6409
s(S'eighty'
p996
S'five'
p997
tp998
I6644
s(S'morning'
p999
S'this'
p1000
tp1001
I18222
s(S'me'
p1002
S'if'
p1003
tp1004
I1981281
s(S'that'
p1005
S'was'
p1006
tp1007
I33814089
s(S'or'
p1008
S'cell'
p1009
tp1010
I125387
s(S'tests'
p1011
S'steels'
p1012
tp1013
I0
s(S'qualifies'
p1014
S'him'
p1015
tp1016
I13403
s(S'the'
p1017
S'images'
p1018
tp1019
I1422442
s(S'will'
p1020
S'rise'
p1021
tp1022
I686514
s(g611
S'when'
p1023
tp1024
I18777
s(S'_START_'
p1025
S'earlier'
p1026
tp1027
I66864
s(g515
g35
tp1028
I6621
s(S'oldest'
p1029
S'brother'
p1030
tp1031
I83268
s(S'this'
p1032
g944
tp1033
I4604
s(S'beep'
p1034
g628
tp1035
I6834
s(S'year'
p1036
S'the'
p1037
tp1038
I1793640
s(S'at'
p1039
S'state'
p1040
tp1041
I117438
s(S'sonys'
p1042
S'playstation3'
p1043
tp1044
I0
s(S'to'
p1045
S'ennoble'
p1046
tp1047
I32636
s(S'car'
p1048
S'no'
p1049
tp1050
I3759
s(S'now'
p1051
S'grown'
p1052
tp1053
I143193
s(S'_START_'
p1054
S'some'
p1055
tp1056
I3775680
s(S'absorbed'
p1057
S'in'
p1058
tp1059
I1227278
s(S'trouble'
p1060
S'so'
p1061
tp1062
I16099
s(S'still'
p1063
S'elevator'
p1064
tp1065
I0
s(S'of'
p1066
S'style'
p1067
tp1068
I1051664
s(S'convinced'
p1069
S'him'
p1070
tp1071
I330240
s(S'torso'
p1072
S'and'
p1073
tp1074
I64377
s(S'ever'
p1075
S'rated'
p1076
tp1077
I502
s(S'market'
p1078
S'debut'
p1079
tp1080
I252
s(S'many'
p1081
S'fans'
p1082
tp1083
I26520
s(S'and'
p1084
S'county'
p1085
tp1086
I547274
s(S'been'
p1087
g35
tp1088
I22619966
s(S'million'
p1089
S'acres'
p1090
tp1091
I421992
s(S'information'
p1092
S'or'
p1093
tp1094
I618422
s(S'has'
p1095
S'twenty'
p1096
tp1097
I62160
s(S'heat'
p1098
S'so'
p1099
tp1100
I36199
s(S'performed'
p1101
g1039
tp1102
I734407
s(S'of'
p1103
S'two'
p1104
tp1105
I20590597
s(S'parents'
p1106
S'were'
p1107
tp1108
I1312265
s(g1085
S'fairs'
p1109
tp1110
I26620
s(S'by'
p1111
S'this'
p1112
tp1113
I12310902
s(S'two'
p1114
S'foot'
p1115
tp1116
I28415
s(S'floor'
p1117
S'then'
p1118
tp1119
I5923
s(S'surprisingly'
p1120
S'demanding'
p1121
tp1122
I121
s(S'empty'
p1123
S'car'
p1124
tp1125
I14429
s(S'unlikely'
p1126
S'social'
p1127
tp1128
I221
s(S'cause'
p1129
S'of'
p1130
tp1131
I14038226
s(S'even'
p1132
S'terribly'
p1133
tp1134
I1182
s(S'valley'
p1135
S'entrepreneur'
p1136
tp1137
I0
s(S'the'
p1138
S'oceans'
p1139
tp1140
I489615
s(g529
S'some'
p1141
tp1142
I1178
s(S'id'
p1143
S'like'
p1144
tp1145
I750
s(S'north'
p1146
S'so'
p1147
tp1148
I6992
s(S'an'
p1149
S'equipment'
p1150
tp1151
I72311
s(S'lotus'
p1152
S'elise'
p1153
tp1154
I0
s(S'than'
p1155
S'either'
p1156
tp1157
I922129
s(S'since'
p1158
S'kramer'
p1159
tp1160
I0
s(S'would'
p1161
S'love'
p1162
tp1163
I478195
s(g765
S'epic'
p1164
tp1165
I3516
s(g288
S'dvd'
p1166
tp1167
I161
s(g1093
S'instructions'
p1168
tp1169
I70076
s(S'shipped'
p1170
S'off'
p1171
tp1172
I53642
s(S'of'
p1173
S'study'
p1174
tp1175
I2797683
s(S'thick'
p1176
S'leather'
p1177
tp1178
I20420
s(S'bit'
p1179
S'like'
p1180
tp1181
I245667
s(S'the'
p1182
S'peacockish'
p1183
tp1184
I0
s(S'plant'
p1185
S'and'
p1186
tp1187
I1308568
s(g35
S'highway'
p1188
tp1189
I352475
s(g1055
S'time'
p1190
tp1191
I9737249
s(S'believe'
p1192
S'it'
p1193
tp1194
I3957976
s(g121
S'is'
p1195
tp1196
I82674356
s(g35
S'farmer'
p1197
tp1198
I1405621
s(S'and'
p1199
S'with'
p1200
tp1201
I27116319
s(g908
S'rising'
p1202
tp1203
I40080
s(S'hundred'
p1204
g13
tp1205
I22118
s(S'some'
p1206
S'years'
p1207
tp1208
I2510645
s(S'look'
p1209
S'speak'
p1210
tp1211
I146
s(S'episode'
p1212
S'of'
p1213
tp1214
I637658
s(S'waited'
p1215
g35
tp1216
I340328
s(g1136
S'button'
p1217
tp1218
I0
s(S'in'
p1219
S'on'
p1220
tp1221
I3426613
s(S'car'
p1222
S'melts'
p1223
tp1224
I0
s(S'the'
p1225
S'pit'
p1226
tp1227
I1185757
s(S'error'
p1228
S'of'
p1229
tp1230
I1631671
s(S'nylon'
p1231
S'jacket'
p1232
tp1233
I4613
s(S'to'
p1234
S'have'
p1235
tp1236
I94967485
s(S'infestations'
p1237
S'_END_'
p1238
tp1239
I127
s(S'levels'
p1240
S'are'
p1241
tp1242
I951382
s(S'knives'
p1243
S'which'
p1244
tp1245
I6955
s(S'man'
p1246
g123
tp1247
I15568615
s(S'the'
p1248
S'speeding'
p1249
tp1250
I54437
s(S'fourth'
p1251
S'bee'
p1252
tp1253
I148
s(S'pantry'
p1254
S'_END_'
p1255
tp1256
I431
s(S'forty'
p1257
S'third'
p1258
tp1259
I776
s(S'which'
p1260
g1069
tp1261
I38823
s(S'cent'
p1262
S'of'
p1263
tp1264
I8351636
s(S'piece'
p1265
g526
tp1266
I14344681
s(S'by'
p1267
S'the'
p1268
tp1269
I387599968
s(S'million'
p1270
S'copies'
p1271
tp1272
I167002
s(S'as'
p1273
S'frequently'
p1274
tp1275
I289909
s(g905
g35
tp1276
I14645846
s(S'next'
p1277
S'four'
p1278
tp1279
I362466
s(S'shoot'
p1280
S'up'
p1281
tp1282
I96658
s(S'wrong'
p1283
S'turn'
p1284
tp1285
I56930
s(S'birth'
p1286
S'and'
p1287
tp1288
I1263500
s(S'thin'
p1289
g52
tp1290
I610
s(S'renewable'
p1291
S'sources'
p1292
tp1293
I18128
s(S'can'
p1294
S'mean'
p1295
tp1296
I411666
s(g911
S'flashed'
p1297
tp1298
I2667
s(S'temperatures'
p1299
S'_END_'
p1300
tp1301
I8477
s(S'bladesmithing'
p1302
S'because'
p1303
tp1304
I0
s(S'samsingers'
p1305
g230
tp1306
I0
s(S'be'
p1307
S'worth'
p1308
tp1309
I1494534
s(S'by'
p1310
S'eye'
p1311
tp1312
I92634
s(S'added'
p1313
S'to'
p1314
tp1315
I9334684
s(S'pile'
p1316
S'would'
p1317
tp1318
I6371
s(S'elevator'
p1319
S'to'
p1320
tp1321
I102452
s(S'cooler'
p1322
S'_END_'
p1323
tp1324
I1963
s(S'mornings'
p1325
S'and'
p1326
tp1327
I90726
s(g403
g35
tp1328
I14712
s(S'he'
p1329
S'hoped'
p1330
tp1331
I1128697
s(S'two'
p1332
S'feet'
p1333
tp1334
I995902
s(S'and'
p1335
S'grades'
p1336
tp1337
I118977
s(S'cars'
p1338
S'walls'
p1339
tp1340
I0
s(S'put'
p1341
S'it'
p1342
tp1343
I7751798
s(S'sams'
p1344
S'which'
p1345
tp1346
I0
s(S'per'
p1347
S'hour'
p1348
tp1349
I2344596
s(S'counterweight'
p1350
S'to'
p1351
tp1352
I66678
s(S'_START_'
p1353
S'the'
p1354
tp1355
I98924245
s(S'that'
p1356
S'emissions'
p1357
tp1358
I9065
s(S'finished'
p1359
S'his'
p1360
tp1361
I746586
s(S'offer'
p1362
g1092
tp1363
I30345
s(S'the'
p1364
S'cliffyb'
p1365
tp1366
I0
s(S'are'
p1367
S'typically'
p1368
tp1369
I1090724
s(S'hearing'
p1370
S'unlikely'
p1371
tp1372
I0
s(S'many'
p1373
S'of'
p1374
tp1375
I27731513
s(S'late'
p1376
S'on'
p1377
tp1378
I158987
s(S'run'
p1379
S'along'
p1380
tp1381
I215560
s(S'paramount'
p1382
S'in'
p1383
tp1384
I81600
s(S'available'
p1385
S'industry'
p1386
tp1387
I824
s(S'could'
p1388
S'do'
p1389
tp1390
I6274997
s(S'the'
p1391
S'past'
p1392
tp1393
I24098892
s(S'earn'
p1394
g431
tp1395
I27257
s(S'owned'
p1396
S'company'
p1397
tp1398
I31766
s(S'not'
p1399
S'sit'
p1400
tp1401
I653370
s(g586
g1123
tp1402
I1877489
s(S'altered'
p1403
g697
tp1404
I281650
s(S'virtually'
p1405
S'every'
p1406
tp1407
I552412
s(S'the'
p1408
g712
tp1409
I25060223
s(S'stacked'
p1410
S'along'
p1411
tp1412
I6784
s(S'smoking'
p1413
g35
tp1414
I258626
s(S'red'
p1415
S'hummer'
p1416
tp1417
I0
s(S'the'
p1418
S'baking'
p1419
tp1420
I216221
s(S'to'
p1421
S'two'
p1422
tp1423
I4408005
s(S'manganese'
p1424
S'or'
p1425
tp1426
I9072
s(S'small'
p1427
S'bright'
p1428
tp1429
I22014
s(S'late'
p1430
S'april'
p1431
tp1432
I120
s(S'but'
p1433
g744
tp1434
I347292
s(S'of'
p1435
S'nicholas'
p1436
tp1437
I102
s(S'them'
p1438
S'fell'
p1439
tp1440
I66272
s(S'kitchen'
p1441
S'supply'
p1442
tp1443
I1540
s(S'broad'
p1444
S'conservative'
p1445
tp1446
I463
s(S'top'
p1447
g1117
tp1448
I245407
s(S'the'
p1449
S'tower'
p1450
tp1451
I1440569
s(S'the'
p1452
g732
tp1453
I547176
s(S'longer'
p1454
S'than'
p1455
tp1456
I3815400
s(S'cushion'
p1457
S'of'
p1458
tp1459
I87891
s(S'company'
p1460
S'property'
p1461
tp1462
I29443
s(S'that'
p1463
S'holds'
p1464
tp1465
I575133
s(S'working'
p1466
g1376
tp1467
I56935
s(S'_START_'
p1468
S'talking'
p1469
tp1470
I43004
s(S'the'
p1471
S'smell'
p1472
tp1473
I1382536
s(g722
S'down'
p1474
tp1475
I723470
s(S'first'
p1476
S'game'
p1477
tp1478
I147900
s(S'conflicting'
p1479
g895
tp1480
I0
s(g750
g1011
tp1481
I0
s(S'twice'
p1482
S'place'
p1483
tp1484
I52
s(S'he'
p1485
S'worked'
p1486
tp1487
I1534171
s(g35
g1457
tp1488
I212726
s(S'image'
p1489
S'has'
p1490
tp1491
I114034
s(S'in'
p1492
S'awe'
p1493
tp1494
I497043
s(S'shooter'
p1495
S'game'
p1496
tp1497
I954
s(S'that'
p1498
g99
tp1499
I188076
s(S'blocks'
p1500
S'and'
p1501
tp1502
I321609
s(S'replicate'
p1503
S'the'
p1504
tp1505
I127081
s(S'looking'
p1506
S'like'
p1507
tp1508
I617613
s(S'born'
p1509
S'in'
p1510
tp1511
I8926142
s(g20
S'doors'
p1512
tp1513
I15710
s(S'things'
p1514
S'they'
p1515
tp1516
I870487
s(S'value'
p1517
S'_END_'
p1518
tp1519
I109166
s(S'be'
p1520
S'described'
p1521
tp1522
I3180614
s(S'absorbed'
p1523
S'by'
p1524
tp1525
I1047951
s(S'basic'
p1526
S'elements'
p1527
tp1528
I266571
s(S'came'
p1529
S'to'
p1530
tp1531
I30403360
s(g803
S'of'
p1532
tp1533
I34564
s(S'amount'
p1534
S'of'
p1535
tp1536
I34023379
s(S'is'
p1537
S'inadvisable'
p1538
tp1539
I37131
s(S'edge'
p1540
S'on'
p1541
tp1542
I136069
s(S'another'
p1543
S'thats'
p1544
tp1545
I0
s(S'ager'
p1546
S'and'
p1547
tp1548
I3673
s(S'february'
p1549
S'when'
p1550
tp1551
I0
s(S'year'
p1552
S'old'
p1553
tp1554
I1157398
s(S'throwing'
p1555
g35
tp1556
I308319
s(S'in'
p1557
S'downtown'
p1558
tp1559
I356118
s(S'laugh'
p1560
S'_END_'
p1561
tp1562
I3253
s(S'_START_'
p1563
S'we'
p1564
tp1565
I8527519
s(g336
S'and'
p1566
tp1567
I248314
s(S'that'
p1568
S'an'
p1569
tp1570
I9710850
s(S'how'
p1571
S'or'
p1572
tp1573
I227598
s(S'continue'
p1574
S'to'
p1575
tp1576
I11188829
s(S'consequences'
p1577
S'of'
p1578
tp1579
I5029361
s(g217
S'himself'
p1580
tp1581
I83850
s(g1333
S'wide'
p1582
tp1583
I972899
s(S'masters'
p1584
S'status'
p1585
tp1586
I0
s(S'elevators'
p1587
S'or'
p1588
tp1589
I10032
s(S'for'
p1590
S'perfection'
p1591
tp1592
I114831
s(S'africa'
p1593
S'_END_'
p1594
tp1595
I167
s(S'threatened'
p1596
S'sea'
p1597
tp1598
I353
s(S'at'
p1599
S'knife'
p1600
tp1601
I4540
s(S'his'
p1602
S'colleagues'
p1603
tp1604
I1804753
s(S'luxurious'
p1605
S'two'
p1606
tp1607
I715
s(S'are'
p1608
S'terrifying'
p1609
tp1610
I8104
s(S'consumption'
p1611
S'is'
p1612
tp1613
I312712
s(S'what'
p1614
g821
tp1615
I168453
s(g35
S'nebraska'
p1616
tp1617
I0
s(S'rolled'
p1618
S'steel'
p1619
tp1620
I47917
s(g35
S'roughly'
p1621
tp1622
I107204
s(S'fast'
p1623
S'_END_'
p1624
tp1625
I10880
s(g1524
g332
tp1626
I13925
s(S'monday'
p1627
S'mornings'
p1628
tp1629
I0
s(S'engine'
p1630
S'room'
p1631
tp1632
I153559
s(S'co2'
p1633
g1240
tp1634
I0
s(S'with'
p1635
g198
tp1636
I1763817
s(S'dealer'
p1637
S'_END_'
p1638
tp1639
I2703
s(S'this'
p1640
S'blade'
p1641
tp1642
I12120
s(S'and'
p1643
g1543
tp1644
I5773115
s(g35
S'quarter'
p1645
tp1646
I3814986
s(S'at'
p1647
S'crossroads'
p1648
tp1649
I13570
s(g589
S'for'
p1650
tp1651
I87133
s(S'the'
p1652
S'malfunction'
p1653
tp1654
I19069
s(S'transportation'
p1655
S'industry'
p1656
tp1657
I37178
s(S'_START_'
p1658
S'loading'
p1659
tp1660
I17124
s(S'as'
p1661
S'staples'
p1662
tp1663
I3947
s(S'above'
p1664
S'the'
p1665
tp1666
I16671850
s(S'of'
p1667
S'spring'
p1668
tp1669
I855798
s(S'for'
p1670
S'hardening'
p1671
tp1672
I22743
s(S'for'
p1673
S'heat'
p1674
tp1675
I211788
s(S'finished'
p1676
S'fifteen'
p1677
tp1678
I554
s(S'images'
p1679
S'on'
p1680
tp1681
I183270
s(S'fifth'
p1682
S'floor'
p1683
tp1684
I90472
s(S'the'
p1685
S'cab'
p1686
tp1687
I640368
s(S'man'
p1688
S'with'
p1689
tp1690
I4176073
s(S'announcement'
p1691
S'after'
p1692
tp1693
I2052
s(g1271
S'_END_'
p1694
tp1695
I12389
s(S'non'
p1696
S'american'
p1697
tp1698
I0
s(S'be'
p1699
S'the'
p1700
tp1701
I50924982
s(S'are'
p1702
S'only'
p1703
tp1704
I5091061
s(S'four'
p1705
S'hundred'
p1706
tp1707
I2151556
s(S'energy'
p1708
S'than'
p1709
tp1710
I200445
s(S'and'
p1711
S'each'
p1712
tp1713
I4772523
s(S'into'
p1714
S'the'
p1715
tp1716
I146673731
s(g1668
S'_END_'
p1717
tp1718
I17144
s(S'same'
p1719
S'they'
p1720
tp1721
I18131
s(S'his'
p1722
g1029
tp1723
I136010
s(S'he'
p1724
S'explained'
p1725
tp1726
I1210807
s(S'industrially'
p1727
g1618
tp1728
I0
s(g1202
S'temperatures'
p1729
tp1730
I9385
s(S'fifty'
p1731
S'and'
p1732
tp1733
I134788
s(g385
S'_END_'
p1734
tp1735
I42343
s(S'sure'
p1736
S'exactly'
p1737
tp1738
I48336
s(S'green'
p1739
S'and'
p1740
tp1741
I1432399
s(S'_START_'
p1742
S'with'
p1743
tp1744
I6551578
s(S'car'
p1745
S'or'
p1746
tp1747
I313300
s(g35
S'party'
p1748
tp1749
I5225868
s(S'and'
p1750
S'started'
p1751
tp1752
I3119678
s(S'rotors'
p1753
S'which'
p1754
tp1755
I920
s(S'where'
p1756
S'farmers'
p1757
tp1758
I22279
s(S'chuckling'
p1759
S'to'
p1760
tp1761
I20708
s(S'much'
p1762
S'of'
p1763
tp1764
I18728465
s(g1258
S'floor'
p1765
tp1766
I370089
s(S'feet'
p1767
S'of'
p1768
tp1769
I3457568
s(g1521
S'as'
p1770
tp1771
I5703021
s(S'the'
p1772
S'combustion'
p1773
tp1774
I529836
s(S'atmosphere'
p1775
g576
tp1776
I52387
s(S'energy'
p1777
S'as'
p1778
tp1779
I285739
s(g35
S'thirty'
p1780
tp1781
I453080
s(S'his'
p1782
g1081
tp1783
I667444
s(S'was'
p1784
S'playing'
p1785
tp1786
I999573
s(S'be'
p1787
g35
tp1788
I69748613
s(S'eight'
p1789
S'ladders'
p1790
tp1791
I251
s(S'the'
p1792
S'standard'
p1793
tp1794
I7606584
s(S'the'
p1795
S'fighting'
p1796
tp1797
I1302737
s(S'_START_'
p1798
g1143
tp1799
I392557
s(S'sams'
p1800
g1498
tp1801
I0
s(S'_START_'
p1802
g155
tp1803
I3735666
s(S'the'
p1804
S'planets'
p1805
tp1806
I839286
s(S'series'
p1807
S'of'
p1808
tp1809
I20510222
s(S'brought'
p1810
g1219
tp1811
I2706348
s(S'some'
p1812
S'thirty'
p1813
tp1814
I423658
s(S'lined'
p1815
S'coats'
p1816
tp1817
I2205
s(S'hour'
p1818
S'soak'
p1819
tp1820
I1142
s(S'hundred'
p1821
S'degrees'
p1822
tp1823
I48365
s(S'together'
p1824
S'different'
p1825
tp1826
I18387
s(S'cows'
p1827
S'he'
p1828
tp1829
I5458
s(S'and'
p1830
S'rods'
p1831
tp1832
I45277
s(S'decided'
p1833
g99
tp1834
I718
s(S'throwbacks'
p1835
S'to'
p1836
tp1837
I6575
s(S'of'
p1838
S'orders'
p1839
tp1840
I448189
s(S'my'
p1841
S'hearts'
p1842
tp1843
I12119
s(g770
S'has'
p1844
tp1845
I0
s(S'crank'
p1846
S'_END_'
p1847
tp1848
I1605
s(S'shy'
p1849
S'of'
p1850
tp1851
I199870
s(S'phenomenon'
p1852
S'known'
p1853
tp1854
I68363
s(g345
S'in'
p1855
tp1856
I6284641
s(S'islands'
p1857
S'forty'
p1858
tp1859
I140
s(S'slight'
p1860
S'temperature'
p1861
tp1862
I7100
s(S'styles'
p1863
S'he'
p1864
tp1865
I3702
s(g115
S'molten'
p1866
tp1867
I175675
s(S'prefab'
p1868
S'industrial'
p1869
tp1870
I0
s(S'thats'
p1871
S'tough'
p1872
tp1873
I0
s(g35
S'pillow'
p1874
tp1875
I410537
s(S'to'
p1876
g35
tp1877
I165019502
s(S'species'
p1878
S'will'
p1879
tp1880
I118368
s(S'the'
p1881
S'game'
p1882
tp1883
I6396019
s(S'it'
p1884
S'again'
p1885
tp1886
I2983347
s(S'to'
p1887
S'this'
p1888
tp1889
I38451234
s(S'then'
p1890
S'cuts'
p1891
tp1892
I20250
s(S'floor'
p1893
S'snapping'
p1894
tp1895
I59
s(S'refining'
p1896
S'the'
p1897
tp1898
I84252
s(S'or'
p1899
S'letting'
p1900
tp1901
I44530
s(S'happened'
p1902
S'to'
p1903
tp1904
I6895883
s(S'neither'
p1905
S'really'
p1906
tp1907
I5831
s(S'energy'
p1908
S'_END_'
p1909
tp1910
I32064
s(S'on'
p1911
S'her'
p1912
tp1913
I19017848
s(S'both'
p1914
S'of'
p1915
tp1916
I9403425
s(S'for'
p1917
S'polaroid'
p1918
tp1919
I50
s(S'ringling'
p1920
S'brothers'
p1921
tp1922
I0
s(S'late'
p1923
S'nineteen'
p1924
tp1925
I9750
s(S'husband'
p1926
S'and'
p1927
tp1928
I2798591
s(S'next'
p1929
S'year'
p1930
tp1931
I2695500
s(S'tankers'
p1932
S'_END_'
p1933
tp1934
I366
s(S'ocean'
p1935
S'acidification'
p1936
tp1937
I777
s(S'aaron'
p1938
S'rubys'
p1939
tp1940
I0
s(S'and'
p1941
S'at'
p1942
tp1943
I21820609
s(S'and'
p1944
S'fifty'
p1945
tp1946
I2778369
s(S'rainstorm'
p1947
S'_END_'
p1948
tp1949
I77
s(S'thousand'
p1950
g1767
tp1951
I744086
s(S'and'
p1952
g1938
tp1953
I365
s(S'buffing'
p1954
S'the'
p1955
tp1956
I2814
s(S'four'
p1957
S'years'
p1958
tp1959
I5746319
s(S'three'
p1960
S'year'
p1961
tp1962
I134282
s(S'new'
p1963
S'york'
p1964
tp1965
I64649
s(S'deserted'
p1966
S'_END_'
p1967
tp1968
I740
s(S'elevators'
p1969
S'the'
p1970
tp1971
I1302
s(S'popcorn'
p1972
S'he'
p1973
tp1974
I516
s(S'not'
p1975
S'confirmed'
p1976
tp1977
I111085
s(g1193
S'or'
p1978
tp1979
I2793476
s(g1697
S'cut'
p1980
tp1981
I0
s(S'_START_'
p1982
S'gears'
p1983
tp1984
I2954
s(S'aboard'
p1985
S'an'
p1986
tp1987
I33111
s(S'_START_'
p1988
S'despite'
p1989
tp1990
I113964
s(S'war'
p1991
S'2'
p1992
tp1993
I3316
s(g351
S'of'
p1994
tp1995
I84591
s(S'practice'
p1996
S'apparently'
p1997
tp1998
I2480
s(g1220
g1932
tp1999
I3121
s(S'much'
p2000
S'because'
p2001
tp2002
I237035
s(S'2001'
p2003
S'fossil'
p2004
tp2005
I0
s(S'rare'
p2006
S'_END_'
p2007
tp2008
I10603
s(S'then'
p2009
S'began'
p2010
tp2011
I580139
s(g822
S'as'
p2012
tp2013
I234168
s(g1924
g808
tp2014
I811
s(S'his'
p2015
S'face'
p2016
tp2017
I11119300
s(S'least'
p2018
S'is'
p2019
tp2020
I163942
s(g35
g1289
tp2021
I2993438
s(S'launched'
p2022
g35
tp2023
I544228
s(S'cary'
p2024
S'north'
p2025
tp2026
I0
s(g1133
S'adventuresome'
p2027
tp2028
I0
s(S'occasionally'
p2029
S'appear'
p2030
tp2031
I23904
s(g35
g341
tp2032
I239778
s(g35
S'kramer'
p2033
tp2034
I0
s(S'released'
p2035
S'in'
p2036
tp2037
I591728
s(g1200
S'the'
p2038
tp2039
I371260268
s(S'the'
p2040
S'office'
p2041
tp2042
I8286474
s(S'it'
p2043
g886
tp2044
I1054332
s(S'stars'
p2045
S'jenna'
p2046
tp2047
I0
s(S'already'
p2048
S'long'
p2049
tp2050
I43494
s(g56
S'unpredictable'
p2051
tp2052
I76246
s(g1177
S'aprons'
p2053
tp2054
I5691
s(S'flexibility'
p2055
S'and'
p2056
tp2057
I421203
s(S'car'
p2058
S'and'
p2059
tp2060
I2002838
s(S'complicated'
p2061
S'transference'
p2062
tp2063
I78
s(S'stories'
p2064
S'_END_'
p2065
tp2066
I9834
s(S'elevators'
p2067
S'rise'
p2068
tp2069
I372
s(g1365
S'moniker'
p2070
tp2071
I0
s(S'outfits'
p2072
S'and'
p2073
tp2074
I29892
s(g1067
S'black'
p2075
tp2076
I2978
s(S'hundred'
p2077
S'miles'
p2078
tp2079
I1593759
s(g1918
S'_END_'
p2080
tp2081
I0
s(S'staff'
p2082
g721
tp2083
I196484
s(S'turned'
p2084
S'out'
p2085
tp2086
I4921644
s(S'the'
p2087
S'south'
p2088
tp2089
I8720152
s(S'_START_'
p2090
S'as'
p2091
tp2092
I12409673
s(S'twenty'
p2093
S'first'
p2094
tp2095
I13535
s(S'that'
p2096
S'by'
p2097
tp2098
I5229222
s(g893
S'of'
p2099
tp2100
I6924869
s(S'water'
p2101
S'shortages'
p2102
tp2103
I29096
s(S'steel'
p2104
S'was'
p2105
tp2106
I80464
s(S'stylings'
p2107
S'of'
p2108
tp2109
I3456
s(S'some'
p2110
S'parts'
p2111
tp2112
I879889
s(S'may'
p2113
S'not'
p2114
tp2115
I20642054
s(S'its'
p2116
S'exorbitant'
p2117
tp2118
I2283
s(g574
g1463
tp2119
I5590840
s(S'to'
p2120
g384
tp2121
I49877066
s(S'of'
p2122
S'gears'
p2123
tp2124
I73230
s(S'insist'
p2125
S'that'
p2126
tp2127
I1311027
s(S'yet'
p2128
S'another'
p2129
tp2130
I2142654
s(S'he'
p2131
S'still'
p2132
tp2133
I2220478
s(S'wanted'
p2134
S'to'
p2135
tp2136
I25510422
s(g35
S'restless'
p2137
tp2138
I255323
s(S'we'
p2139
S'reached'
p2140
tp2141
I987524
s(S'bedtime'
p2142
g278
tp2143
I5298
s(g1416
S'h3'
p2144
tp2145
I0
s(S'around'
p2146
S'thirty'
p2147
tp2148
I28904
s(S'five'
p2149
S'hundred'
p2150
tp2151
I3344805
s(S'household'
p2152
S'oven'
p2153
tp2154
I423
s(S'eye'
p2155
g1911
tp2156
I1579066
s(S'on'
p2157
S'again'
p2158
tp2159
I426252
s(S'white'
p2160
g1359
tp2161
I147
s(S'up'
p2162
S'in'
p2163
tp2164
I21433492
s(S'1945'
p2165
S'in'
p2166
tp2167
I54768
s(S'was'
p2168
S'generated'
p2169
tp2170
I188333
s(S'hundred'
p2171
S'quadrillion'
p2172
tp2173
I260
s(S'kramer'
p2174
g616
tp2175
I0
s(S'an'
p2176
S'engineer'
p2177
tp2178
I587253
s(g138
S'no'
p2179
tp2180
I529758
s(g1796
S'in'
p2181
tp2182
I543591
s(S'years'
p2183
S'forests'
p2184
tp2185
I90
s(S'family'
p2186
S'_END_'
p2187
tp2188
I68873
s(S'theater'
p2189
g724
tp2190
I377
s(S'called'
p2191
S'his'
p2192
tp2193
I834776
s(S'allowed'
p2194
S'for'
p2195
tp2196
I1078410
s(S'then'
p2197
S'quite'
p2198
tp2199
I57723
s(S'was'
p2200
S'using'
p2201
tp2202
I565392
s(g35
S'janitor'
p2203
tp2204
I62051
s(g864
S'people'
p2205
tp2206
I1262514
s(S'and'
p2207
S'safety'
p2208
tp2209
I1367394
s(S'an'
p2210
S'exit'
p2211
tp2212
I182903
s(S'he'
p2213
S'meant'
p2214
tp2215
I1393659
s(S'played'
p2216
S'it'
p2217
tp2218
I234772
s(g35
S'two'
p2219
tp2220
I4945569
s(S'it'
p2221
S'continued'
p2222
tp2223
I383512
s(S'the'
p2224
S'smith'
p2225
tp2226
I140390
s(S'white'
p2227
g689
tp2228
I12870
s(S'at'
p2229
S'around'
p2230
tp2231
I298182
s(S'while'
p2232
S'_END_'
p2233
tp2234
I22244
s(S'dissolves'
p2235
S'in'
p2236
tp2237
I204960
s(S'sharpness'
p2238
S'which'
p2239
tp2240
I2797
s(S'the'
p2241
g1753
tp2242
I32342
s(S'an'
p2243
S'improvisational'
p2244
tp2245
I8126
s(S'ran'
p2246
g35
tp2247
I879351
s(S'air'
p2248
S'in'
p2249
tp2250
I1218932
s(S'trees'
p2251
S'pressing'
p2252
tp2253
I383
s(S'and'
p2254
g76
tp2255
I446965
s(S'visual'
p2256
S'acuity'
p2257
tp2258
I284744
s(S'was'
p2259
S'on'
p2260
tp2261
I10862161
s(g2219
g213
tp2262
I318179
s(S'popular'
p2263
S'in'
p2264
tp2265
I980747
s(g816
S'dangled'
p2266
tp2267
I25192
s(g256
S'of'
p2268
tp2269
I42840875
s(S'the'
p2270
g1775
tp2271
I3934890
s(g2163
S'front'
p2272
tp2273
I17226524
s(S'sometime'
p2274
S'within'
p2275
tp2276
I7642
s(S'job'
p2277
S'_END_'
p2278
tp2279
I19119
s(S'continue'
p2280
S'then'
p2281
tp2282
I2272
s(g360
g686
tp2283
I7383
s(S'buffer'
p2284
S'in'
p2285
tp2286
I45386
s(S'of'
p2287
S'my'
p2288
tp2289
I45683650
s(S'immediately'
p2290
S'jumped'
p2291
tp2292
I19258
s(S'nonsense'
p2293
S'culinary'
p2294
tp2295
I0
s(S'touch'
p2296
S'his'
p2297
tp2298
I199917
s(S'brake'
p2299
S'as'
p2300
tp2301
I6482
s(S'trade'
p2302
S'center'
p2303
tp2304
I46418
s(S'he'
p2305
g961
tp2306
I34262712
s(S'empire'
p2307
g4
tp2308
I2275
s(S'turbine'
p2309
S'_END_'
p2310
tp2311
I4338
s(S'grsofwar'
p2312
S'_END_'
p2313
tp2314
I0
s(S'pressed'
p2315
g35
tp2316
I192072
s(S'or'
p2317
g35
tp2318
I36229961
s(g2078
g1347
tp2319
I956663
s(S'climbing'
p2320
S'up'
p2321
tp2322
I208181
s(S'billion'
p2323
S'barrels'
p2324
tp2325
I59440
s(S'showcased'
p2326
S'at'
p2327
tp2328
I2213
s(S'of'
p2329
S'pressure'
p2330
tp2331
I1458073
s(S'like'
p2332
S'cliffyb'
p2333
tp2334
I0
s(S'them'
p2335
g653
tp2336
I345396
s(g231
S'houses'
p2337
tp2338
I804363
s(S'book'
p2339
S'about'
p2340
tp2341
I666991
s(S'and'
p2342
S'permanently'
p2343
tp2344
I194458
s(S'done'
p2345
S'all'
p2346
tp2347
I530557
s(S'lore'
p2348
S'has'
p2349
tp2350
I10028
s(S'would'
p2351
g990
tp2352
I612664
s(S'woman'
p2353
g1985
tp2354
I3850
s(S'result'
p2355
g875
tp2356
I24746773
s(g1174
S'culminating'
p2357
tp2358
I431
s(S'square'
p2359
S'miles'
p2360
tp2361
I1483746
s(S'trips'
p2362
S'the'
p2363
tp2364
I16738
s(g35
S'vise'
p2365
tp2366
I94177
s(S'other'
p2367
S'selection'
p2368
tp2369
I14674
s(S'nearly'
p2370
g35
tp2371
I1662280
s(S'when'
p2372
g613
tp2373
I2503955
s(S'or'
p2374
S'more'
p2375
tp2376
I21666840
s(S'also'
p2377
S'began'
p2378
tp2379
I375047
s(g35
g238
tp2380
I2353832
s(g825
S'expensive'
p2381
tp2382
I5203
s(S'sold'
p2383
S'five'
p2384
tp2385
I9087
s(S'_START_'
p2386
S'and'
p2387
tp2388
I218732427
s(S'levels'
p2389
S'of'
p2390
tp2391
I10217587
s(g1621
g1676
tp2392
I4476
s(S'billion'
p2393
S'people'
p2394
tp2395
I131669
s(S'meal'
p2396
S'_END_'
p2397
tp2398
I22066
s(S'dauntingly'
p2399
g674
tp2400
I0
s(S'affected'
p2401
S'the'
p2402
tp2403
I1150271
s(S's'
p2404
g593
tp2405
I16722
s(g2
g1048
tp2406
I6800
s(S'not'
p2407
S'done'
p2408
tp2409
I1806347
s(S'local'
p2410
S'diner'
p2411
tp2412
I5686
s(S'of'
p2413
S'steel'
p2414
tp2415
I1612378
s(S'on'
p2416
S'his'
p2417
tp2418
I40683325
s(S'horn'
p2419
S'_END_'
p2420
tp2421
I6804
s(S'with'
p2422
S'thoughts'
p2423
tp2424
I180102
s(S'is'
p2425
S'stuck'
p2426
tp2427
I97681
s(S'closed'
p2428
S'circuit'
p2429
tp2430
I98938
s(S'which'
p2431
S'has'
p2432
tp2433
I17945890
s(S'drove'
p2434
S'into'
p2435
tp2436
I191478
s(S'one'
p2437
S'on'
p2438
tp2439
I2631074
s(S'they'
p2440
S'settle'
p2441
tp2442
I61650
s(S'rang'
p2443
S'he'
p2444
tp2445
I3326
s(S'movement'
p2446
S'_END_'
p2447
tp2448
I20661
s(S'to'
p2449
S'japan'
p2450
tp2451
I2535
s(S'top'
p2452
S'down'
p2453
tp2454
I154262
s(S'attached'
p2455
S'one'
p2456
tp2457
I9820
s(S'not'
p2458
g2332
tp2459
I9678436
s(S'not'
p2460
S'only'
p2461
tp2462
I45201693
s(S'manufacture'
p2463
S'through'
p2464
tp2465
I1948
s(S'power'
p2466
S'tools'
p2467
tp2468
I72333
s(S'that'
p2469
S'lasted'
p2470
tp2471
I309964
s(g187
S'advance'
p2472
tp2473
I2233162
s(S'announced'
p2474
S'never'
p2475
tp2476
I67
s(S'later'
p2477
S'the'
p2478
tp2479
I2365891
s(S'_START_'
p2480
S'these'
p2481
tp2482
I3253961
s(g917
S'were'
p2483
tp2484
I37726
s(S'of'
p2485
S'airplane'
p2486
tp2487
I53630
s(S'entrapment'
p2488
S'and'
p2489
tp2490
I14208
s(S'it'
p2491
S'tranberg'
p2492
tp2493
I0
s(S'gray'
p2494
S'sky'
p2495
tp2496
I70054
s(S'hair'
p2497
S'skater'
p2498
tp2499
I0
s(S'same'
p2500
S'time'
p2501
tp2502
I25884030
s(S'want'
p2503
S'to'
p2504
tp2505
I49507124
s(S'cooperatives'
p2506
S'and'
p2507
tp2508
I64028
s(S'always'
p2509
S'important'
p2510
tp2511
I61922
s(S'of'
p2512
S'arm'
p2513
tp2514
I129551
s(S'he'
p2515
S'took'
p2516
tp2517
I6893689
s(S'such'
p2518
g2061
tp2519
I23366
s(g535
S'downstairs'
p2520
tp2521
I12316
s(S'assumed'
p2522
S'personalities'
p2523
tp2524
I259
s(S'eleven'
p2525
g967
tp2526
I654438
s(S'his'
p2527
g488
tp2528
I233492
s(S'standing'
p2529
S'in'
p2530
tp2531
I2946569
s(S'the'
p2532
S'years'
p2533
tp2534
I9353374
s(S'when'
p2535
g2139
tp2536
I17079058
s(S'their'
p2537
S'ordinariness'
p2538
tp2539
I1859
s(S'that'
p2540
S'happens'
p2541
tp2542
I667563
s(g35
S'black'
p2543
tp2544
I5029500
s(g1274
S'as'
p2545
tp2546
I272505
s(g930
g2104
tp2547
I1606097
s(S'every'
p2548
g318
tp2549
I1958
s(S'decade'
p2550
S'_END_'
p2551
tp2552
I2110
s(g1869
S'cavern'
p2553
tp2554
I0
s(S'barn'
p2555
S'_END_'
p2556
tp2557
I3622
s(S'specialized'
p2558
S'powders'
p2559
tp2560
I0
s(S'monday'
p2561
S'morning'
p2562
tp2563
I1424
s(S'be'
p2564
S'cowering'
p2565
tp2566
I1446
s(S'thirty'
p2567
S'per'
p2568
tp2569
I90369
s(S'test'
p2570
S'of'
p2571
tp2572
I3132857
s(S'hit'
p2573
g1884
tp2574
I368717
s(S'me'
p2575
S'and'
p2576
tp2577
I9385690
s(S'claimed'
p2578
S'as'
p2579
tp2580
I257375
s(S'_START_'
p2581
S'none'
p2582
tp2583
I613229
s(S'my'
p2584
S'high'
p2585
tp2586
I177643
s(S'wheel'
p2587
S'_END_'
p2588
tp2589
I13229
s(S'teen'
p2590
g1546
tp2591
I729
s(g2135
S'be'
p2592
tp2593
I447671326
s(S'he'
p2594
S'learned'
p2595
tp2596
I1193304
s(S'shaft'
p2597
g709
tp2598
I0
s(S'car'
p2599
S'is'
p2600
tp2601
I552083
s(g2192
S'shop'
p2602
tp2603
I291325
s(S'cigarette'
p2604
S'_END_'
p2605
tp2606
I909
s(g2394
S'will'
p2607
tp2608
I2040602
s(S'of'
p2609
S'samurai'
p2610
tp2611
I22461
s(S'worked'
p2612
S'into'
p2613
tp2614
I165243
s(S'pilot'
p2615
S'made'
p2616
tp2617
I7818
s(g1278
S'or'
p2618
tp2619
I2348246
s(S'how'
p2620
S'one'
p2621
tp2622
I781979
s(S'workers'
p2623
S'doing'
p2624
tp2625
I8171
s(S'open'
p2626
S'to'
p2627
tp2628
I6334296
s(g35
S'replica'
p2629
tp2630
I193782
s(g1958
S'ago'
p2631
tp2632
I14537522
s(S'business'
p2633
S'week'
p2634
tp2635
I2547
s(S'_START_'
p2636
S'tools'
p2637
tp2638
I35798
s(S'in'
p2639
g2024
tp2640
I0
s(g2621
S'samsinger'
p2641
tp2642
I0
s(S'in'
p2643
g35
tp2644
I305165152
s(S'fur'
p2645
g1815
tp2646
I2068
s(g35
S'womans'
p2647
tp2648
I6798
s(g620
S'through'
p2649
tp2650
I2788
s(g2489
S'subsequent'
p2651
tp2652
I1537042
s(g2417
S'forearm'
p2653
tp2654
I92107
s(S'in'
p2655
S'1972'
p2656
tp2657
I933468
s(g2513
S'hair'
p2658
tp2659
I1229
s(S'last'
p2660
g35
tp2661
I562721
s(S'cliffyb'
p2662
S'tends'
p2663
tp2664
I0
s(S'in'
p2665
S'san'
p2666
tp2667
I2957
s(g35
g1495
tp2668
I19797
s(g35
g143
tp2669
I14564
s(S'we'
p2670
S'go'
p2671
tp2672
I2650254
s(S'the'
p2673
g2463
tp2674
I2053590
s(S'and'
p2675
g554
tp2676
I759469
s(S'alert'
p2677
S'and'
p2678
tp2679
I352358
s(S'in'
p2680
S'life'
p2681
tp2682
I6243751
s(S'to'
p2683
g1627
tp2684
I407
s(S'button'
p2685
S'_END_'
p2686
tp2687
I19940
s(S'not'
p2688
S'sure'
p2689
tp2690
I4004443
s(S'states'
p2691
g758
tp2692
I1999424
s(S'had'
p2693
S'piled'
p2694
tp2695
I55113
s(g466
S'_END_'
p2696
tp2697
I1115
s(S'known'
p2698
S'as'
p2699
tp2700
I19989288
s(S'that'
p2701
S'hammer'
p2702
tp2703
I8719
s(S'of'
p2704
S'metal'
p2705
tp2706
I1618093
s(S'hundred'
p2707
S'trillion'
p2708
tp2709
I5183
s(S'chainsaw'
p2710
S'bayonet'
p2711
tp2712
I0
s(S'preindustrial'
p2713
S'levels'
p2714
tp2715
I1513
s(S'_START_'
p2716
S'ask'
p2717
tp2718
I167923
s(S'the'
p2719
S'magazines'
p2720
tp2721
I298519
s(S'world'
p2722
g1273
tp2723
I1874187
s(S'roughly'
p2724
S'the'
p2725
tp2726
I434970
s(S'the'
p2727
g1129
tp2728
I10654167
s(S'of'
p2729
S'twenty'
p2730
tp2731
I3651811
s(g279
g854
tp2732
I1721377
s(S'shots'
p2733
S'from'
p2734
tp2735
I93395
s(S'voice'
p2736
S'to'
p2737
tp2738
I879663
s(S'down'
p2739
S'at'
p2740
tp2741
I4979747
s(S'for'
p2742
S'fun'
p2743
tp2744
I340188
s(S'eventually'
p2745
S'pulled'
p2746
tp2747
I4687
s(S'his'
p2748
S'tongs'
p2749
tp2750
I5207
s(S'out'
p2751
S'his'
p2752
tp2753
I5064035
s(S'exporting'
p2754
S'it'
p2755
tp2756
I7305
s(S'parts'
p2757
S'per'
p2758
tp2759
I264584
s(S'the'
p2760
g1277
tp2761
I40171692
s(S'_START_'
p2762
S'then'
p2763
tp2764
I8505952
s(g35
S'trim'
p2765
tp2766
I83071
s(g1428
S'diamond'
p2767
tp2768
I1166
s(S'selling'
p2769
g605
tp2770
I2753
s(S'in'
p2771
S'1975'
p2772
tp2773
I913001
s(S'with'
p2774
g778
tp2775
I9315
s(S'these'
p2776
S'fossil'
p2777
tp2778
I9232
s(S'_START_'
p2779
S'she'
p2780
tp2781
I18744424
s(g35
S'rate'
p2782
tp2783
I1808895
s(g2051
S'sense'
p2784
tp2785
I279
s(S'many'
p2786
S'by'
p2787
tp2788
I67047
s(S'been'
p2789
S'called'
p2790
tp2791
I2536563
s(g1104
S'elevators'
p2792
tp2793
I6462
s(g35
g2550
tp2794
I2104358
s(g211
g35
tp2795
I826445
s(S'is'
p2796
S'typically'
p2797
tp2798
I1156381
s(S'ten'
p2799
S'feet'
p2800
tp2801
I770304
s(S'his'
p2802
S'forge'
p2803
tp2804
I22826
s(S'badly'
p2805
S'_END_'
p2806
tp2807
I1750
s(S'building'
p2808
S'corals'
p2809
tp2810
I6441
s(S'pressed'
p2811
S'the'
p2812
tp2813
I626771
s(S'degrees'
p2814
S'_END_'
p2815
tp2816
I12983
s(g1751
S'badgering'
p2817
tp2818
I574
s(g35
g1120
tp2819
I280618
s(S'long'
p2820
g1332
tp2821
I18234
s(S'day'
p2822
S'after'
p2823
tp2824
I2808289
s(S'our'
p2825
S'climb'
p2826
tp2827
I8502
s(S'of'
p2828
S'remaining'
p2829
tp2830
I360629
s(S'designers'
p2831
S'are'
p2832
tp2833
I54033
s(S'knife'
p2834
S'could'
p2835
tp2836
I6929
s(S'meaning'
p2837
g1356
tp2838
I1178985
s(S'elevator'
p2839
S'plus'
p2840
tp2841
I139
s(S'were'
p2842
S'soon'
p2843
tp2844
I1326360
s(g2340
S'the'
p2845
tp2846
I77451618
s(S'formed'
p2847
S'energy'
p2848
tp2849
I228
s(S'been'
p2850
g1403
tp2851
I277652
s(S'bladesmith'
p2852
S'_END_'
p2853
tp2854
I0
s(S'eventual'
p2855
S'global'
p2856
tp2857
I587
s(S'decided'
p2858
g796
tp2859
I3786331
s(S'also'
p2860
g35
tp2861
I10598276
s(g1501
S'powders'
p2862
tp2863
I33280
s(S'the'
p2864
S'beams'
p2865
tp2866
I358788
s(g333
S'no'
p2867
tp2868
I0
s(S'for'
p2869
S'endangering'
p2870
tp2871
I5902
s(S'jobs'
p2872
g2680
tp2873
I853367
s(S'off'
p2874
S'during'
p2875
tp2876
I135038
s(S'thousand'
p2877
S'lives'
p2878
tp2879
I41553
s(g2835
g1307
tp2880
I50376346
s(S'three'
p2881
S'plus'
p2882
tp2883
I9624
s(S'center'
p2884
g2655
tp2885
I624394
s(S'and'
p2886
g2443
tp2887
I160455
s(S'conservative'
p2888
g978
tp2889
I404
s(g35
S'hammer'
p2890
tp2891
I454176
s(S'of'
p2892
S'the'
p2893
tp2894
I2823486349
s(S'estimates'
p2895
g1608
tp2896
I412184
s(S'asking'
p2897
S'game'
p2898
tp2899
I42
s(S'hill'
p2900
S'building'
p2901
tp2902
I74
s(S'bell'
p2903
S'mounted'
p2904
tp2905
I983
s(S'acid'
p2906
S'this'
p2907
tp2908
I3183
s(S'especially'
p2909
S'but'
p2910
tp2911
I8723
s(S'an'
p2912
S'hour'
p2913
tp2914
I11885042
s(S'marked'
p2915
S'43'
p2916
tp2917
I126
s(S'bomber'
p2918
g2615
tp2919
I13217
s(S'the'
p2920
S'soul'
p2921
tp2922
I8477752
s(S'moment'
p2923
S'expecting'
p2924
tp2925
I3738
s(S'made'
p2926
S'ripleys'
p2927
tp2928
I0
s(S'will'
p2929
S'also'
p2930
tp2931
I4657522
s(S'time'
p2932
S'he'
p2933
tp2934
I7216620
s(S'which'
p2935
S'epic'
p2936
tp2937
I1774
s(S'and'
p2938
g557
tp2939
I32057
s(S'is'
p2940
g2724
tp2941
I386461
s(S'stops'
p2942
S'below'
p2943
tp2944
I1265
s(S'atoms'
p2945
g579
tp2946
I2884
s(S'this'
p2947
S'cars'
p2948
tp2949
I98
s(S'was'
p2950
S'keeping'
p2951
tp2952
I290838
s(S'blade'
p2953
g2416
tp2954
I38420
s(g368
S'whom'
p2955
tp2956
I25826
s(g997
S'parts'
p2957
tp2958
I122990
s(S'order'
p2959
S'cut'
p2960
tp2961
I921
s(S'started'
p2962
S'to'
p2963
tp2964
I5712178
s(S'beneath'
p2965
S'it'
p2966
tp2967
I510395
s(g1746
S'down'
p2968
tp2969
I629395
s(S'not'
p2970
S'so'
p2971
tp2972
I14184522
s(g2038
S'belly'
p2973
tp2974
I568427
s(S'with'
p2975
S'todays'
p2976
tp2977
I1029
s(S'bleszinskis'
p2978
S'were'
p2979
tp2980
I0
s(S'aural'
p2981
S'hallucinations'
p2982
tp2983
I651
s(S'long'
p2984
S'as'
p2985
tp2986
I16899270
s(S'if'
p2987
S'current'
p2988
tp2989
I34206
s(g423
S'away'
p2990
tp2991
I5239
s(g2450
S'the'
p2992
tp2993
I313
s(S'passerby'
p2994
S'stunned'
p2995
tp2996
I0
s(S'people'
p2997
S'tranberg'
p2998
tp2999
I0
s(g2951
S'an'
p3000
tp3001
I212619
s(S'single'
p3002
g619
tp3003
I2029
s(S'but'
p3004
g99
tp3005
I61112
s(S'why'
p3006
S'hes'
p3007
tp3008
I123
s(S'remains'
p3009
g1492
tp3010
I1377794
s(S'onstage'
p3011
S'partition'
p3012
tp3013
I0
s(S'observe'
p3014
S'him'
p3015
tp3016
I52676
s(S'lives'
p3017
S'on'
p3018
tp3019
I619746
s(S'of'
p3020
S'tongs'
p3021
tp3022
I33359
s(S'2003'
p3023
S'he'
p3024
tp3025
I5425
s(S'run'
p3026
S'in'
p3027
tp3028
I1172989
s(g2743
S'_END_'
p3029
tp3030
I5319
s(S'dolce'
p3031
S'gabbana'
p3032
tp3033
I0
s(S'while'
p3034
S'many'
p3035
tp3036
I333104
s(S'along'
p3037
g35
tp3038
I2421360
s(S'of'
p3039
S'nantucket'
p3040
tp3041
I78
s(S'relatively'
p3042
S'short'
p3043
tp3044
I631122
s(S'spyder'
p3045
S'the'
p3046
tp3047
I0
s(g2559
S'and'
p3048
tp3049
I52293
s(S'the'
p3050
S'console'
p3051
tp3052
I235117
s(S'factories'
p3053
g775
tp3054
I895
s(g2222
S'to'
p3055
tp3056
I12533027
s(S'whites'
p3057
S'life'
p3058
tp3059
I0
s(g1006
g2509
tp3060
I7003284
s(S'come'
p3061
S'out'
p3062
tp3063
I4804481
s(S'his'
p3064
S'myspace'
p3065
tp3066
I0
s(g391
S'elevators'
p3067
tp3068
I130024
s(S'was'
p3069
S'an'
p3070
tp3071
I23967003
s(S'but'
p3072
S'even'
p3073
tp3074
I3016770
s(g71
S'one'
p3075
tp3076
I823030
s(g1813
S'one'
p3077
tp3078
I14998
s(S'took'
p3079
S'me'
p3080
tp3081
I1787902
s(g873
S'of'
p3082
tp3083
I6150268
s(S'to'
p3084
S'predict'
p3085
tp3086
I1974734
s(g460
g1155
tp3087
I5386820
s(S'richtig'
p3088
S'supposedly'
p3089
tp3090
I0
s(g2337
S'with'
p3091
tp3092
I289064
s(S'had'
p3093
g2881
tp3094
I1149564
s(g302
S'related'
p3095
tp3096
I106
s(S'answer'
p3097
S'yes'
p3098
tp3099
I52653
s(S'might'
p3100
g167
tp3101
I66
s(g656
S'even'
p3102
tp3103
I57361
s(S'said'
p3104
S'cutting'
p3105
tp3106
I1540
s(S'special'
p3107
S'supplement'
p3108
tp3109
I14365
s(S'is'
p3110
S'why'
p3111
tp3112
I3890678
s(S'the'
p3113
S'emergency'
p3114
tp3115
I1115755
s(g1241
S'projected'
p3116
tp3117
I167694
s(S'game'
p3118
S'industry'
p3119
tp3120
I12441
s(S'they'
p3121
S'used'
p3122
tp3123
I1388993
s(S'vertical'
p3124
g1655
tp3125
I5030
s(S'shy'
p3126
g2590
tp3127
I307
s(g1900
g35
tp3128
I96292
s(S'of'
p3129
S'us'
p3130
tp3131
I20714313
s(S'the'
p3132
S'hoist'
p3133
tp3134
I43136
s(S'silk'
p3135
S'shirts'
p3136
tp3137
I15850
s(S'time'
p3138
g99
tp3139
I27271
s(S'the'
p3140
S'lobby'
p3141
tp3142
I1026234
s(S'lodged'
p3143
S'in'
p3144
tp3145
I561287
s(g1252
S'gee'
p3146
tp3147
I0
s(S'somehow'
p3148
g1696
tp3149
I380
s(g463
S'to'
p3150
tp3151
I40344287
s(g2019
S'so'
p3152
tp3153
I15999417
s(S'read'
p3154
S'technology'
p3155
tp3156
I131
s(S'now'
p3157
S'he'
p3158
tp3159
I2320748
s(g1400
S'on'
p3160
tp3161
I1436758
s(S'plate'
p3162
S'through'
p3163
tp3164
I12207
s(S'bottom'
p3165
S'of'
p3166
tp3167
I7278278
s(g409
S'was'
p3168
tp3169
I81437
s(S'wagon'
p3170
S'_END_'
p3171
tp3172
I5566
s(S'then'
p3173
S'laughing'
p3174
tp3175
I9134
s(S'are'
p3176
g1051
tp3177
I9727117
s(S'denmarks'
p3178
S'peculiar'
p3179
tp3180
I0
s(g2631
g830
tp3181
I57
s(S'video'
p3182
S'games'
p3183
tp3184
I255642
s(S'widely'
p3185
S'assumed'
p3186
tp3187
I35349
s(g91
g1846
tp3188
I40560
s(S'arrived'
p3189
S'at'
p3190
tp3191
I5841967
s(S'industry'
p3192
S'likes'
p3193
tp3194
I851
s(S'and'
p3195
g1555
tp3196
I442069
s(S'organized'
p3197
S'seminars'
p3198
tp3199
I1470
s(S'one'
p3200
S'wall'
p3201
tp3202
I247223
s(g35
S'stoplight'
p3203
tp3204
I17209
s(S'of'
p3205
S'oil'
p3206
tp3207
I2521462
s(S'while'
p3208
g2529
tp3209
I152160
s(g1490
g2224
tp3210
I17720703
s(g3067
S'unusable'
p3211
tp3212
I0
s(S'morning'
p3213
S'in'
p3214
tp3215
I748536
s(S'custom'
p3216
S'knives'
p3217
tp3218
I307
s(S'stop'
p3219
S'the'
p3220
tp3221
I2146279
s(S'spring'
p3222
S'he'
p3223
tp3224
I75924
s(S'of'
p3225
S'frank'
p3226
tp3227
I46451
s(g879
g1679
tp3228
I1400
s(S'be'
p3229
S'like'
p3230
tp3231
I2628741
s(S'wheat'
p3232
S'and'
p3233
tp3234
I592043
s(S'the'
p3235
S'site'
p3236
tp3237
I6149453
s(S'that'
p3238
S'baffle'
p3239
tp3240
I6000
s(S'day'
p3241
S'scholarly'
p3242
tp3243
I317
s(S'was'
p3244
S'no'
p3245
tp3246
I26881604
s(S'ontological'
p3247
S'assumptions'
p3248
tp3249
I4899
s(S'dropped'
p3250
S'it'
p3251
tp3252
I394074
s(S'as'
p3253
S'three'
p3254
tp3255
I514913
s(S'the'
p3256
g451
tp3257
I3671358
s(S'five'
p3258
S'decades'
p3259
tp3260
I76477
s(S'ideas'
p3261
S'_END_'
p3262
tp3263
I11399
s(g1700
g2307
tp3264
I2344931
s(S'that'
p3265
S'had'
p3266
tp3267
I20926697
s(S'arm'
p3268
S'of'
p3269
tp3270
I1454161
s(S'cigarette'
p3271
S'and'
p3272
tp3273
I319854
s(S'steel'
p3274
S'up'
p3275
tp3276
I3298
s(S'blades'
p3277
S'which'
p3278
tp3279
I11123
s(S'the'
p3280
S'house'
p3281
tp3282
I28512385
s(S'his'
p3283
S'sunglasses'
p3284
tp3285
I39744
s(S'began'
p3286
g2229
tp3287
I617061
s(S'contemplate'
p3288
S'death'
p3289
tp3290
I2775
s(S'the'
p3291
g399
tp3292
I836632
s(g2321
S'into'
p3293
tp3294
I3640973
s(g3251
S'on'
p3295
tp3296
I8537873
s(g846
g82
tp3297
I0
s(g14
S'will'
p3298
tp3299
I4333
s(S'expected'
p3300
S'to'
p3301
tp3302
I10717172
s(S'in'
p3303
S'2005'
p3304
tp3305
I393601
s(g3027
g19
tp3306
I719843
s(g2826
g2962
tp3307
I255
s(S'the'
p3308
g1852
tp3309
I1517747
s(S'no'
p3310
S'longer'
p3311
tp3312
I26194810
s(S'father'
p3313
S'died'
p3314
tp3315
I516889
s(S'to'
p3316
g1325
tp3317
I1119
s(S'popcorn'
p3318
S'spreading'
p3319
tp3320
I0
s(g225
S'best'
p3321
tp3322
I0
s(g1469
S'to'
p3323
tp3324
I3543527
s(S'mysteries'
p3325
S'_END_'
p3326
tp3327
I1124
s(g35
S'preserve'
p3328
tp3329
I19492
s(S'accelerated'
p3330
S'_END_'
p3331
tp3332
I499
s(S'mop'
p3333
S'of'
p3334
tp3335
I54246
s(g299
S'to'
p3336
tp3337
I625970
s(g35
S'moment'
p3338
tp3339
I17469789
s(S'his'
p3340
g2555
tp3341
I54272
s(S'to'
p3342
g1782
tp3343
I70903061
s(S'special'
p3344
S'system'
p3345
tp3346
I24144
s(S'like'
p3347
g35
tp3348
I45495441
s(g126
S'gears'
p3349
tp3350
I0
s(S'his'
p3351
S'chef'
p3352
tp3353
I12805
s(g1397
S'and'
p3354
tp3355
I1502180
s(g2114
S'sound'
p3356
tp3357
I680464
s(S'award'
p3358
S'and'
p3359
tp3360
I61442
s(g1645
S'inch'
p3361
tp3362
I58595
s(S'with'
p3363
g1098
tp3364
I251361
s(S'american'
p3365
S'bladesmith'
p3366
tp3367
I0
s(S'and'
p3368
S'the'
p3369
tp3370
I624881102
s(g564
S'by'
p3371
tp3372
I34772
s(g2618
g3258
tp3373
I2358436
s(S'they'
p3374
g1209
tp3375
I885763
s(S'everywhere'
p3376
S'_END_'
p3377
tp3378
I4740
s(g3275
g1670
tp3379
I7112700
s(S'bladesmiths'
p3380
g3061
tp3381
I0
s(S'his'
p3382
S'house'
p3383
tp3384
I3415668
s(S'covered'
p3385
g3170
tp3386
I73592
s(S'noted'
p3387
S'not'
p3388
tp3389
I11304
s(S'ramp'
p3390
S'bleszinski'
p3391
tp3392
I0
s(g2441
S'into'
p3393
tp3394
I120562
s(S'_START_'
p3395
S'an'
p3396
tp3397
I4608074
s(S'at'
p3398
g2018
tp3399
I58246792
s(S'page'
p3400
S'which'
p3401
tp3402
I33076
s(S'he'
p3403
g2401
tp3404
I71026
s(S'than'
p3405
g440
tp3406
I1761385
s(S'magazine'
p3407
S'cooks'
p3408
tp3409
I0
s(g1992
S'will'
p3410
tp3411
I118541
s(S'other'
p3412
g175
tp3413
I886795
s(g541
S'an'
p3414
tp3415
I1686
s(S'introduced'
p3416
S'this'
p3417
tp3418
I65763
s(g35
g2353
tp3419
I16001993
s(g1538
S'_END_'
p3420
tp3421
I65
s(g834
S'forty'
p3422
tp3423
I227012
s(S'dress'
p3424
S'like'
p3425
tp3426
I98317
s(S'link'
p3427
S'between'
p3428
tp3429
I1670100
s(S'control'
p3430
S'panel'
p3431
tp3432
I221703
s(g2288
g2872
tp3433
I13203
s(S'to'
p3434
S'tell'
p3435
tp3436
I17849281
s(S'all'
p3437
S'is'
p3438
tp3439
I2323868
s(S'watched'
p3440
S'the'
p3441
tp3442
I2814237
s(S'at'
p3443
S'an'
p3444
tp3445
I8972393
s(g17
g1310
tp3446
I149481
s(S'car'
p3447
S'crashed'
p3448
tp3449
I5930
s(g1303
g1860
tp3450
I1908
s(S'together'
p3451
S'_END_'
p3452
tp3453
I28542
s(g762
S'and'
p3454
tp3455
I22655795
s(S'ice'
p3456
S'cap'
p3457
tp3458
I51569
s(S'will'
p3459
S'be'
p3460
tp3461
I122856971
s(S'chemistrys'
p3462
g1526
tp3463
I0
s(g2429
g2733
tp3464
I0
s(S'forty'
p3465
S'per'
p3466
tp3467
I94594
s(g3130
S'_END_'
p3468
tp3469
I66214
s(g3133
g2207
tp3470
I15957
s(S'are'
p3471
S'fields'
p3472
tp3473
I22151
s(g2823
S'the'
p3474
tp3475
I50138796
s(g2153
S'lets'
p3476
tp3477
I0
s(S'or'
p3478
S'mining'
p3479
tp3480
I39616
s(S'than'
p3481
S'drive'
p3482
tp3483
I12206
s(S'he'
p3484
S'lives'
p3485
tp3486
I813296
s(S'rifle'
p3487
S'mounted'
p3488
tp3489
I758
s(S'the'
p3490
S'first'
p3491
tp3492
I135910417
s(S'ninety'
p3493
g2814
tp3494
I56682
s(S'we'
p3495
S'hit'
p3496
tp3497
I135765
s(S'they'
p3498
g3176
tp3499
I84165282
s(S'he'
p3500
S'was'
p3501
tp3502
I134885137
s(S'asking'
p3503
S'whether'
p3504
tp3505
I182737
s(g3328
S'inhabited'
p3506
tp3507
I125
s(S'long'
p3508
S'he'
p3509
tp3510
I370452
s(S'even'
p3511
S'out'
p3512
tp3513
I122639
s(g3085
S'in'
p3514
tp3515
I27016
s(S'floors'
p3516
g1899
tp3517
I34590
s(S'him'
p3518
S'on'
p3519
tp3520
I5735158
s(g2875
g2825
tp3521
I537877
s(S'and'
p3522
S'ron'
p3523
tp3524
I855
s(g2998
S'told'
p3525
tp3526
I0
s(S'metal'
p3527
g1500
tp3528
I3713
s(S'fuel'
p3529
g845
tp3530
I26096
s(S'about'
p3531
S'changing'
p3532
tp3533
I88826
s(S'rapidly'
p3534
S'_END_'
p3535
tp3536
I3242
s(S'up'
p3537
S'through'
p3538
tp3539
I1018250
s(S'wolfe'
p3540
g1635
tp3541
I0
s(S'master'
p3542
S'_END_'
p3543
tp3544
I9596
s(S'should'
p3545
S'the'
p3546
tp3547
I2096133
s(S'melt'
p3548
S'currently'
p3549
tp3550
I0
s(S'by'
p3551
g2128
tp3552
I54778
s(S'to'
p3553
S'give'
p3554
tp3555
I37364968
s(S'sluggishly'
p3556
S'and'
p3557
tp3558
I5345
s(S'was'
p3559
g715
tp3560
I978854
s(g205
g244
tp3561
I71875
s(g2845
S'industry'
p3562
tp3563
I3646856
s(S'to'
p3564
S'four'
p3565
tp3566
I2303871
s(S'ten'
p3567
g2183
tp3568
I6342896
s(S'the'
p3569
g2822
tp3570
I28059170
s(S'nickname'
p3571
S'he'
p3572
tp3573
I6822
s(g2990
S'from'
p3574
tp3575
I24571501
s(g2856
g677
tp3576
I19834
s(S'after'
p3577
S'spending'
p3578
tp3579
I160696
s(S'attitude'
p3580
S'toward'
p3581
tp3582
I2657422
s(S'button'
p3583
S'for'
p3584
tp3585
I102900
s(g2132
g3093
tp3586
I2001054
s(g2456
g1664
tp3587
I363758
s(S'of'
p3588
S'steelmaking'
p3589
tp3590
I5380
s(g1168
S'_END_'
p3591
tp3592
I9758
s(S'was'
p3593
S'wearing'
p3594
tp3595
I1306351
s(S'360'
p3596
S'console'
p3597
tp3598
I398
s(S'studies'
p3599
S'this'
p3600
tp3601
I16276
s(S'thought'
p3602
S'it'
p3603
tp3604
I6044499
s(S'the'
p3605
S'driver'
p3606
tp3607
I2619867
s(S'one'
p3608
S'ticket'
p3609
tp3610
I19598
s(S'within'
p3611
S'two'
p3612
tp3613
I940379
s(S'four'
p3614
S'thousand'
p3615
tp3616
I986211
s(g1662
S'regions'
p3617
tp3618
I0
s(g1544
g551
tp3619
I0
s(S'by'
p3620
S'contrast'
p3621
tp3622
I964952
s(S'tore'
p3623
g3537
tp3624
I148596
s(g1052
g1661
tp3625
I150442
s(g242
S'said'
p3626
tp3627
I0
s(S'generator'
p3628
S'_END_'
p3629
tp3630
I9231
s(g2921
S'of'
p3631
tp3632
I2026245
s(g3532
S'this'
p3633
tp3634
I33126
s(S'which'
p3635
S'he'
p3636
tp3637
I49240335
s(S'drivers'
p3638
S'of'
p3639
tp3640
I120908
s(S'match'
p3641
g892
tp3642
I1395961
s(g2435
S'epics'
p3643
tp3644
I556
s(S'alarm'
p3645
g2903
tp3646
I31098
s(S'to'
p3647
S'olympia'
p3648
tp3649
I0
s(S'led'
p3650
S'to'
p3651
tp3652
I13003806
s(g3589
g158
tp3653
I0
s(g1973
g2351
tp3654
I37865169
s(S'the'
p3655
S'porn'
p3656
tp3657
I19180
s(S'button'
p3658
S'and'
p3659
tp3660
I390758
s(S'ones'
p3661
g434
tp3662
I11945
s(S'that'
p3663
g2670
tp3664
I44748697
s(S'out'
p3665
S'among'
p3666
tp3667
I379070
s(S'see'
p3668
g35
tp3669
I6232905
s(S'it'
p3670
g2084
tp3671
I1408064
s(g962
S'that'
p3672
tp3673
I620609
s(S'size'
p3674
g3039
tp3675
I11925518
s(S'on'
p3676
S'november'
p3677
tp3678
I1001
s(S'baths'
p3679
S'which'
p3680
tp3681
I6806
s(S'disappearing'
p3682
S'each'
p3683
tp3684
I478
s(g35
g3002
tp3685
I31559155
s(S'as'
p3686
S'exceptional'
p3687
tp3688
I39613
s(S'colleague'
p3689
S'hed'
p3690
tp3691
I0
s(S'debris'
p3692
g3623
tp3693
I58
s(S'hydraulic'
p3694
S'pumps'
p3695
tp3696
I8067
s(S'five'
p3697
S'years'
p3698
tp3699
I8887621
s(g35
g1584
tp3700
I24576
s(S'his'
p3701
g1827
tp3702
I44871
s(g2027
S'_END_'
p3703
tp3704
I0
s(g608
S'his'
p3705
tp3706
I1465677
s(g382
S'armed'
p3707
tp3708
I62410
s(S'the'
p3709
S'impact'
p3710
tp3711
I4429790
s(S'cables'
p3712
S'each'
p3713
tp3714
I727
s(g849
g511
tp3715
I39407
s(S'who'
p3716
S'is'
p3717
tp3718
I21052490
s(S'observing'
p3719
S'himself'
p3720
tp3721
I3221
s(S'sales'
p3722
g459
tp3723
I222822
s(S'decline'
p3724
g37
tp3725
I6787
s(S'_START_'
p3726
S'this'
p3727
tp3728
I8976624
s(S'shape'
p3729
S'of'
p3730
tp3731
I4958384
s(S'horrors'
p3732
S'strandings'
p3733
tp3734
I0
s(g2705
S'in'
p3735
tp3736
I278855
s(S'service'
p3737
S'elevator'
p3738
tp3739
I13987
s(S'emergency'
p3740
S'bell'
p3741
tp3742
I1056
s(S'and'
p3743
g2858
tp3744
I1303294
s(g1330
S'once'
p3745
tp3746
I1994
s(S'decade'
p3747
S'or'
p3748
tp3749
I264102
s(S'cent'
p3750
S'heavier'
p3751
tp3752
I2968
s(g1461
S'_END_'
p3753
tp3754
I83098
s(S'it'
p3755
S'might'
p3756
tp3757
I9289553
s(S'highway'
p3758
S'he'
p3759
tp3760
I5240
s(S'five'
p3761
S'miles'
p3762
tp3763
I1457741
s(S'is'
p3764
g2727
tp3765
I224341331
s(S'bleszinski'
p3766
S'made'
p3767
tp3768
I0
s(S'around'
p3769
S'its'
p3770
tp3771
I354058
s(S'conference'
p3772
g2665
tp3773
I555402
s(S'feet'
p3774
S'ten'
p3775
tp3776
I40454
s(g2225
S'beating'
p3777
tp3778
I68
s(S'recall'
p3779
S'an'
p3780
tp3781
I53635
s(g678
S'of'
p3782
tp3783
I4486351
s(g924
g919
tp3784
I47869
s(g3155
g3283
tp3785
I294
s(S'island'
p3786
S'of'
p3787
tp3788
I2254147
s(g1606
g1818
tp3789
I34706
s(g794
g508
tp3790
I0
s(S'weed'
p3791
g1637
tp3792
I100
s(S'appear'
p3793
S'calm'
p3794
tp3795
I15386
s(g2324
g3205
tp3796
I578856
s(S'if'
p3797
g99
tp3798
I73128
s(S'2005'
p3799
S'it'
p3800
tp3801
I4759
s(S'stages'
p3802
g793
tp3803
I4881762
s(S'cliff'
p3804
S'bleszinski'
p3805
tp3806
I0
s(S'in'
p3807
S'recent'
p3808
tp3809
I3605354
s(g2890
S'at'
p3810
tp3811
I22481
s(g1368
g563
tp3812
I814
s(S'gave'
p3813
S'him'
p3814
tp3815
I5998688
s(S'years'
p3816
S'_END_'
p3817
tp3818
I227228
s(S'if'
p3819
g2540
tp3820
I3661662
s(S'kramer'
p3821
S'to'
p3822
tp3823
I0
s(S'that'
p3824
S'on'
p3825
tp3826
I4099629
s(S'known'
p3827
g3342
tp3828
I10510703
s(S'ten'
p3829
S'minutes'
p3830
tp3831
I2182486
s(g3683
S'year'
p3832
tp3833
I4184597
s(g2924
g35
tp3834
I291360
s(S'he'
p3835
S'moves'
p3836
tp3837
I271937
s(S'were'
p3838
g437
tp3839
I786142
s(S'swath'
p3840
g2512
tp3841
I75383
s(S'work'
p3842
S'_END_'
p3843
tp3844
I135412
s(S'dioxide'
p3845
S'_END_'
p3846
tp3847
I15361
s(g2985
g2221
tp3848
I47482549
s(S'climate'
p3849
S'change'
p3850
tp3851
I377050
s(S'that'
p3852
g3291
tp3853
I368154495
s(S'_START_'
p3854
g2256
tp3855
I73950
s(g1295
S'the'
p3856
tp3857
I2110422
s(g144
g857
tp3858
I326591
s(g788
S'he'
p3859
tp3860
I116778996
s(S'expanse'
p3861
S'of'
p3862
tp3863
I723191
s(S'disruptive'
p3864
S'impacts'
p3865
tp3866
I468
s(g3105
S'over'
p3867
tp3868
I5078
s(g2893
S'mcgraw'
p3869
tp3870
I0
s(S'_START_'
p3871
g204
tp3872
I946002
s(g159
S'commercial'
p3873
tp3874
I53135
s(S'carbon'
p3875
S'dioxide'
p3876
tp3877
I2512628
s(S'top'
p3878
S'it'
p3879
tp3880
I99353
s(g971
S'heat'
p3881
tp3882
I2204
s(g598
g35
tp3883
I100264882
s(S'to'
p3884
S'dumbwaiters'
p3885
tp3886
I0
s(S'_START_'
p3887
S'meanwhile'
p3888
tp3889
I113304
s(S'an'
p3890
S'assault'
p3891
tp3892
I447838
s(S'and'
p3893
S'bounced'
p3894
tp3895
I89960
s(S'his'
p3896
g2497
tp3897
I1928575
s(S'he'
p3898
S'said'
p3899
tp3900
I45633114
s(S'free'
p3901
g2329
tp3902
I3476863
s(S'recently'
p3903
S'there'
p3904
tp3905
I50077
s(S'one'
p3906
S'when'
p3907
tp3908
I265319
s(S'was'
p3909
g1509
tp3910
I14095843
s(g1308
g2116
tp3911
I58554
s(S'nasdaq'
p3912
S'_END_'
p3913
tp3914
I0
s(S'we'
p3915
S'are'
p3916
tp3917
I40973029
s(g35
g2232
tp3918
I9000272
s(S'methods'
p3919
S'_END_'
p3920
tp3921
I42430
s(S'is'
p3922
S'some'
p3923
tp3924
I3470369
s(g2068
g292
tp3925
I1438559
s(g1808
S'trips'
p3926
tp3927
I94911
s(g1425
S'some'
p3928
tp3929
I4115136
s(S'one'
p3930
S'of'
p3931
tp3932
I138300265
s(g3705
g534
tp3933
I558603
s(S'out'
p3934
S'to'
p3935
tp3936
I20623962
s(S'code'
p3937
S'determines'
p3938
tp3939
I2508
s(S'he'
p3940
S'is'
p3941
tp3942
I46021059
s(S'by'
p3943
S'burning'
p3944
tp3945
I260328
s(S'sixty'
p3946
S'miles'
p3947
tp3948
I324388
s(S'producing'
p3949
S'from'
p3950
tp3951
I21143
s(S'began'
p3952
g201
tp3953
I33084096
s(S'cent'
p3954
S'faster'
p3955
tp3956
I3684
s(g3383
S'one'
p3957
tp3958
I85501
s(g2198
S'deliberately'
p3959
tp3960
I27141
s(S'inch'
p3961
g700
tp3962
I457436
s(g1195
S'as'
p3963
tp3964
I11552511
s(S'games'
p3965
S'is'
p3966
tp3967
I57962
s(S'gave'
p3968
S'it'
p3969
tp3970
I2383545
s(S'of'
p3971
S'coal'
p3972
tp3973
I1757948
s(S'the'
p3974
S'lights'
p3975
tp3976
I1912074
s(S'long'
p3977
g2645
tp3978
I10652
s(g2797
g3465
tp3979
I259
s(g1472
S'of'
p3980
tp3981
I2157688
s(g2030
S'in'
p3982
tp3983
I5936209
s(g441
g984
tp3984
I549
s(S'cent'
p3985
g2837
tp3986
I60
s(S'is'
p3987
S'melting'
p3988
tp3989
I26150
s(g35
g1605
tp3990
I159719
s(S'conferred'
p3991
S'by'
p3992
tp3993
I385918
s(S'_START_'
p3994
S'co2'
p3995
tp3996
I1797
s(g1162
S'to'
p3997
tp3998
I3784448
s(S'fifteen'
p3999
S'his'
p4000
tp4001
I2125
s(S'_START_'
p4002
g3676
tp4003
I10810352
s(S'do'
p4004
S'this'
p4005
tp4006
I7409450
s(S'the'
p4007
S'rapid'
p4008
tp4009
I2056156
s(S'the'
p4010
S'ranch'
p4011
tp4012
I824741
s(g35
g3658
tp4013
I623573
s(g779
g2251
tp4014
I236
s(g3904
S'had'
p4015
tp4016
I4054537
s(g3352
g2404
tp4017
I2028
s(S'earnings'
p4018
S'_END_'
p4019
tp4020
I36989
s(g1765
g2892
tp4021
I2646386
s(S'shop'
p4022
g35
tp4023
I30087
s(S'these'
p4024
g3679
tp4025
I12857
s(S'of'
p4026
g502
tp4027
I73462
s(S'cleaver'
p4028
S'_END_'
p4029
tp4030
I96
s(g1790
S'each'
p4031
tp4032
I127
s(S'_START_'
p4033
g3182
tp4034
I49439
s(g2730
g3614
tp4035
I58904
s(S'for'
p4036
S'essences'
p4037
tp4038
I2334
s(g882
S'on'
p4039
tp4040
I733844
s(g3496
g35
tp4041
I700771
s(S'to'
p4042
g3793
tp4043
I4958600
s(S'west'
p4044
S'virginia'
p4045
tp4046
I539
s(S'code'
p4047
S'and'
p4048
tp4049
I448388
s(S'or'
p4050
S'eight'
p4051
tp4052
I1143855
s(g2088
S'and'
p4053
tp4054
I1044122
s(S'plunges'
p4055
S'into'
p4056
tp4057
I71782
s(S'been'
p4058
g3235
tp4059
I15073131
s(S'rather'
p4060
g3481
tp4061
I41678804
s(S'doors'
p4062
S'suddenly'
p4063
tp4064
I1854
s(g2637
g1176
tp4065
I0
s(S'kramer'
p4066
S'who'
p4067
tp4068
I0
s(S'the'
p4069
S'base'
p4070
tp4071
I9244786
s(S'_START_'
p4072
g3930
tp4073
I5452063
s(S'trends'
p4074
S'in'
p4075
tp4076
I1112792
s(S'an'
p4077
S'adjacent'
p4078
tp4079
I321789
s(S'chemistry'
p4080
S'of'
p4081
tp4082
I447585
s(g3075
S'has'
p4083
tp4084
I4261979
s(S'ends'
p4085
S'trailing'
p4086
tp4087
I859
s(S'out'
p4088
S'of'
p4089
tp4090
I111285628
s(g2530
S'epics'
p4091
tp4092
I2635
s(S'parking'
p4093
S'lot'
p4094
tp4095
I1440336
s(S'million'
p4096
S'the'
p4097
tp4098
I27607
s(S'attaining'
p4099
g35
tp4100
I147304
s(S'beefy'
p4101
g1688
tp4102
I5345
s(S'rural'
p4103
S'america'
p4104
tp4105
I68
s(S'burn'
p4106
S'through'
p4107
tp4108
I25117
s(S'somehow'
p4109
g970
tp4110
I0
s(S'ones'
p4111
S'hanging'
p4112
tp4113
I2145
s(g965
g2639
tp4114
I252316
s(S'and'
p4115
g3424
tp4116
I409087
s(S'had'
p4117
S'gone'
p4118
tp4119
I8220571
s(S'at'
p4120
S'three'
p4121
tp4122
I1086917
s(S'lamborghini'
p4123
S'gallardo'
p4124
tp4125
I0
s(g435
S'many'
p4126
tp4127
I6803938
s(g152
S'_END_'
p4128
tp4129
I217564
s(S'oceans'
p4130
S'will'
p4131
tp4132
I5486
s(g532
g1952
tp4133
I83
s(S'weak'
p4134
g2906
tp4135
I122781
s(g1268
S'time'
p4136
tp4137
I71067169
s(g35
S'number'
p4138
tp4139
I28559215
s(g2780
S'was'
p4140
tp4141
I49729428
s(g2960
S'through'
p4142
tp4143
I751212
s(S'smoke'
p4144
S'break'
p4145
tp4146
I3426
s(S'_START_u'
p4147
S'_END_'
p4148
tp4149
I0
s(S'smartbomb'
p4150
g35
tp4151
I0
s(g35
S'reference'
p4152
tp4153
I2075669
s(S'work'
p4154
S'the'
p4155
tp4156
I1373694
s(g1773
S'of'
p4157
tp4158
I349234
s(g1600
S'shows'
p4159
tp4160
I358
s(g1585
S'kramer'
p4161
tp4162
I0
s(g648
S'many'
p4163
tp4164
I9382189
s(S'lot'
p4165
S'in'
p4166
tp4167
I521975
s(S'old'
p4168
S'design'
p4169
tp4170
I10496
s(S'fall'
p4171
S'_END_'
p4172
tp4173
I16731
s(g35
g2888
tp4174
I805669
s(g710
S'attendant'
p4175
tp4176
I491922
s(S'waves'
p4177
S'with'
p4178
tp4179
I111237
s(S'year'
p4180
S'earlier'
p4181
tp4182
I269923
s(S'guy'
p4183
S'was'
p4184
tp4185
I267329
s(g1656
S'professional'
p4186
tp4187
I2021
s(S'silicon'
p4188
g1135
tp4189
I907
s(S'arrive'
p4190
g718
tp4191
I7350
s(g3997
S'crack'
p4192
tp4193
I424468
s(g3975
g839
tp4194
I110899
s(S'_START_'
p4195
S'_END_'
p4196
tp4197
I7243
s(S'in'
p4198
S'it'
p4199
tp4200
I16958304
s(S'knife'
p4201
S'shaped'
p4202
tp4203
I610
s(g1709
S'it'
p4204
tp4205
I6306066
s(S'privately'
p4206
g1396
tp4207
I402624
s(S'but'
p4208
S'bleszinski'
p4209
tp4210
I0
s(S'_START_'
p4211
g691
tp4212
I36582373
s(S'empty'
p4213
S'elevator'
p4214
tp4215
I2867
s(g3183
S'are'
p4216
tp4217
I215173
s(g4159
g1506
tp4218
I210
s(S'mass'
p4219
g1078
tp4220
I95764
s(S'the'
p4221
S'nineteen'
p4222
tp4223
I208618
s(S'right'
p4224
g1534
tp4225
I147816
s(S'out'
p4226
S'back'
p4227
tp4228
I157954
s(g3472
g1756
tp4229
I141401
s(S'name'
p4230
S'and'
p4231
tp4232
I3766664
s(g99
S'didnt'
p4233
tp4234
I0
s(S'face'
p4235
S'_END_'
p4236
tp4237
I33025
s(g406
S'disclose'
p4238
tp4239
I158618
s(g985
S'_END_'
p4240
tp4241
I23989
s(g3720
S'_END_'
p4242
tp4243
I18218
s(g35
g935
tp4244
I1068450
s(g2158
S'_END_'
p4245
tp4246
I38717
s(S'the'
p4247
S'shaftway'
p4248
tp4249
I767
s(g1442
S'chain'
p4250
tp4251
I290675
s(S'curve'
p4252
g573
tp4253
I4557
s(S'island'
p4254
S'is'
p4255
tp4256
I344735
s(S'natural'
p4257
S'gas'
p4258
tp4259
I1116876
s(S'wakeup'
p4260
S'call'
p4261
tp4262
I7665
s(S'not'
p4263
S'do'
p4264
tp4265
I10493418
s(S'blacksmithing'
p4266
g1489
tp4267
I0
s(S'the'
p4268
S'combination'
p4269
tp4270
I2065406
s(S'richtig'
p4271
S'and'
p4272
tp4273
I0
s(S'_START_'
p4274
g929
tp4275
I16893
s(S'water'
p4276
S'to'
p4277
tp4278
I3241131
s(S'fire'
p4279
S'in'
p4280
tp4281
I1444588
s(g109
g938
tp4282
I11067
s(g3203
S'bleszinski'
p4283
tp4284
I0
s(g3141
S'and'
p4285
tp4286
I148810
s(g2784
S'of'
p4287
tp4288
I30020343
s(S'several'
p4289
S'feet'
p4290
tp4291
I281190
s(S'ladder'
p4292
S'there'
p4293
tp4294
I2951
s(g1566
S'strips'
p4295
tp4296
I50582
s(g2832
S'largely'
p4297
tp4298
I995437
s(S'containers'
p4299
g114
tp4300
I2159
s(g2602
g694
tp4301
I534538
s(S'of'
p4302
S'assorted'
p4303
tp4304
I73664
s(S'grow'
p4305
S'by'
p4306
tp4307
I125346
s(S'aura'
p4308
S'of'
p4309
tp4310
I445723
s(S'returned'
p4311
S'to'
p4312
tp4313
I14176240
s(g2971
g312
tp4314
I82201
s(S'of'
p4315
g3462
tp4316
I0
s(S'scolded'
p4317
g2869
tp4318
I19548
s(g2411
S'_END_'
p4319
tp4320
I257
s(S'were'
p4321
S'of'
p4322
tp4323
I4195449
s(g1989
g4099
tp4324
I133
s(S'rang'
p4325
g2886
tp4326
I152798
s(g681
S'twenties'
p4327
tp4328
I82290
s(S'they'
p4329
g3842
tp4330
I885933
s(g1580
g2422
tp4331
I3505690
s(g2297
g842
tp4332
I35371
s(S'was'
p4333
g3999
tp4334
I287859
s(g495
S'ninth'
p4335
tp4336
I510
s(g1445
g2895
tp4337
I27122
s(S'country'
p4338
g1941
tp4339
I3430580
s(g35
S'quick'
p4340
tp4341
I3364781
s(g4231
S'fashioned'
p4342
tp4343
I73684
s(g1026
S'this'
p4344
tp4345
I116770
s(S'small'
p4346
S'sidebar'
p4347
tp4348
I175
s(g4290
S'yields'
p4349
tp4350
I335
s(S'be'
p4351
S'released'
p4352
tp4353
I920650
s(S'brakes'
p4354
g270
tp4355
I49921
s(S'buggy'
p4356
S'axles'
p4357
tp4358
I89
s(S'we'
p4359
S'always'
p4360
tp4361
I645623
s(g1386
g3358
tp4362
I728
s(S'_START_'
p4363
g4060
tp4364
I1520226
s(S'lately'
p4365
S'bleszinski'
p4366
tp4367
I0
s(S'clown'
p4368
S'arrives'
p4369
tp4370
I0
s(g432
g295
tp4371
I126446
s(g35
S'patchwork'
p4372
tp4373
I104971
s(g4303
S'lengths'
p4374
tp4375
I931
s(S'red'
p4376
S'_END_'
p4377
tp4378
I45499
s(S'cutting'
p4379
S'paper'
p4380
tp4381
I5954
s(S'mellow'
p4382
g4308
tp4383
I54
s(S'air'
p4384
S'about'
p4385
tp4386
I114264
s(S'another'
p4387
g2440
tp4388
I83521
s(S'story'
p4389
S'ran'
p4390
tp4391
I20349
s(S'11'
p4392
g482
tp4393
I1689
s(S'_START_t'
p4394
S'_END_'
p4395
tp4396
I0
s(g35
S'sailor'
p4397
tp4398
I524676
s(S'its'
p4399
g35
tp4400
I66166
s(S'small'
p4401
S'door'
p4402
tp4403
I66559
s(S'seven'
p4404
S'year'
p4405
tp4406
I58079
s(S'friday'
p4407
S'night'
p4408
tp4409
I1184
s(g1118
g545
tp4410
I23046
s(S'trying'
p4411
S'to'
p4412
tp4413
I25158522
s(g319
g1075
tp4414
I0
s(S'ways'
p4415
g3238
tp4416
I2063239
s(S'square'
p4417
S'in'
p4418
tp4419
I353436
s(g35
S'folk'
p4420
tp4421
I181540
s(g3944
S'coal'
p4422
tp4423
I49716
s(S'plates'
p4424
g307
tp4425
I0
s(S'by'
p4426
S'pale'
p4427
tp4428
I16858
s(S'growth'
p4429
S'of'
p4430
tp4431
I8863882
s(g4015
g1087
tp4432
I142330818
s(g1040
g1084
tp4433
I5517674
s(S'full'
p4434
S'load'
p4435
tp4436
I195526
s(g642
S'decapitations'
p4437
tp4438
I0
s(g1018
S'turned'
p4439
tp4440
I1313
s(S'he'
p4441
g28
tp4442
I340337
s(g979
S'is'
p4443
tp4444
I909974
s(S'be'
p4445
S'caught'
p4446
tp4447
I753748
s(g2303
S'on'
p4448
tp4449
I330545
s(S'bleszinskis'
p4450
S'brand'
p4451
tp4452
I0
s(g2264
g1963
tp4453
I1648616
s(g3504
S'such'
p4454
tp4455
I563522
s(g397
S'asked'
p4456
tp4457
I2590
s(g876
g1228
tp4458
I101873
s(S'shaggy'
p4459
S'which'
p4460
tp4461
I0
s(g100
g485
tp4462
I5614026
s(g305
S'personalized'
p4463
tp4464
I1118
s(S'especially'
p4465
S'well'
p4466
tp4467
I183099
s(g35
g1283
tp4468
I813058
s(g420
g772
tp4469
I21107
s(S'straightforward'
p4470
g2834
tp4471
I0
s(g521
S'at'
p4472
tp4473
I124766
s(g2658
S'and'
p4474
tp4475
I2654058
s(S'truth'
p4476
S'this'
p4477
tp4478
I23967
s(S'they'
p4479
g3387
tp4480
I67149
s(g35
g2093
tp4481
I902040
s(S'said'
p4482
S'yes'
p4483
tp4484
I330550
s(S'included'
p4485
g35
tp4486
I1551530
s(S'kramer'
p4487
S'made'
p4488
tp4489
I0
s(g3230
S'playing'
p4490
tp4491
I80885
s(g3775
S'kramer'
p4492
tp4493
I0
s(S'in'
p4494
g3042
tp4495
I366877
s(g2046
S'jameson'
p4496
tp4497
I0
s(g2423
g2828
tp4498
I1849986
s(S'this'
p4499
S'was'
p4500
tp4501
I17213074
s(g3482
S'the'
p4502
tp4503
I1260190
s(S'its'
p4504
g4018
tp4505
I73336
s(S'last'
p4506
S'year'
p4507
tp4508
I3426287
s(g162
S'but'
p4509
tp4510
I3590
s(S'half'
p4511
g35
tp4512
I6603748
s(g4435
S'of'
p4513
tp4514
I1482697
s(S'orange'
p4515
S'porsche'
p4516
tp4517
I0
s(g692
S'richtig'
p4518
tp4519
I0
s(S'_START_'
p4520
S'gamers'
p4521
tp4522
I165
s(g2041
g1254
tp4523
I79
s(g4112
S'from'
p4524
tp4525
I548194
s(S'_START_'
p4526
S'another'
p4527
tp4528
I1392973
s(S'the'
p4529
g4080
tp4530
I344428
s(S'time'
p4531
g872
tp4532
I329011
s(S'kramer'
p4533
S'began'
p4534
tp4535
I0
s(g819
S'designers'
p4536
tp4537
I8690
s(S'down'
p4538
g3135
tp4539
I386
s(S'steel'
p4540
S'relax'
p4541
tp4542
I0
s(S'the'
p4543
S'center'
p4544
tp4545
I13287777
s(S'glowing'
p4546
S'orange'
p4547
tp4548
I7268
s(g3431
S'made'
p4549
tp4550
I5768
s(S'might'
p4551
g1399
tp4552
I5671846
s(S'hour'
p4553
S'_END_'
p4554
tp4555
I45172
s(g3393
S'roomy'
p4556
tp4557
I295
s(g3035
S'still'
p4558
tp4559
I80756
s(g4037
S'for'
p4560
tp4561
I2085
s(g3988
g3443
tp4562
I115365
s(S'own'
p4563
S'sort'
p4564
tp4565
I21723
s(S'kitchen'
p4566
g1413
tp4567
I486
s(g902
S'fossil'
p4568
tp4569
I267280
s(S'high'
p4570
g923
tp4571
I58802
s(g2943
g494
tp4572
I9718245
s(g2266
S'it'
p4573
tp4574
I6803
s(S'and'
p4575
g350
tp4576
I306846
s(S'not'
p4577
S'_END_'
p4578
tp4579
I257421
s(S'it'
p4580
g3493
tp4581
I2850
s(g828
S'only'
p4582
tp4583
I2917997
s(S'experts'
p4584
g3668
tp4585
I4418
s(S'nations'
p4586
g4570
tp4587
I377
s(g3401
g1206
tp4588
I1481237
s(g2203
g1954
tp4589
I0
s(S'sensation'
p4590
g860
tp4591
I1105945
s(S'haircut'
p4592
S'is'
p4593
tp4594
I4206
s(g2653
g1199
tp4595
I102913
s(g35
S'brick'
p4596
tp4597
I533986
s(g639
S'that'
p4598
tp4599
I606605
s(g477
S'had'
p4600
tp4601
I109250
s(S'and'
p4602
S'cowlicked'
p4603
tp4604
I98
s(S'parts'
p4605
g913
tp4606
I0
s(g2492
S'stubbed'
p4607
tp4608
I0
s(S'in'
p4609
S'free'
p4610
tp4611
I581260
s(g2671
S'to'
p4612
tp4613
I23709807
s(g4607
g2751
tp4614
I30654
s(S'not'
p4615
S'some'
p4616
tp4617
I599489
s(g3805
g781
tp4618
I0
s(g4163
S'as'
p4619
tp4620
I2689382
s(g2144
S'_END_'
p4621
tp4622
I72
s(S'still'
p4623
S'remembers'
p4624
tp4625
I30325
s(g982
g2466
tp4626
I8408246
s(S'put'
p4627
S'into'
p4628
tp4629
I4017087
s(g719
g370
tp4630
I51
s(S'soft'
p4631
S'_END_'
p4632
tp4633
I14057
s(S'his'
p4634
S'standard'
p4635
tp4636
I179217
s(S'industry'
p4637
g183
tp4638
I122
s(g4216
g941
tp4639
I241905
s(S'furnaces'
p4640
g2675
tp4641
I89848
s(g1232
S'was'
p4642
tp4643
I66278
s(g1927
S'me'
p4644
tp4645
I3484522
s(g3108
S'had'
p4646
tp4647
I1650
s(S'the'
p4648
g2660
tp4649
I48579599
s(S'was'
p4650
S'adamant'
p4651
tp4652
I129244
s(g1226
g35
tp4653
I11253
s(g1936
S'_END_'
p4654
tp4655
I149
s(g3832
S'_END_'
p4656
tp4657
I192209
s(S'game'
p4658
S'over'
p4659
tp4660
I24199
s(S'kramers'
p4661
S'blade'
p4662
tp4663
I0
s(g1532
S'supporting'
p4664
tp4665
I610170
s(S'of'
p4666
S'air'
p4667
tp4668
I4436890
s(g4261
g3898
tp4669
I40274
s(S'took'
p4670
S'the'
p4671
tp4672
I11547107
s(S'main'
p4673
g3638
tp4674
I4260
s(g3957
S'gray'
p4675
tp4676
I16085
s(S'of'
p4677
g3518
tp4678
I15156738
s(S'free'
p4679
S'falling'
p4680
tp4681
I3618
s(S'this'
p4682
S'point'
p4683
tp4684
I11964377
s(g2327
S'industry'
p4685
tp4686
I9043
s(S'during'
p4687
S'my'
p4688
tp4689
I909696
s(g4340
S'blunt'
p4690
tp4691
I55
s(g3479
g1587
tp4692
I0
s(g509
g3376
tp4693
I11172
s(S'car'
p4694
g35
tp4695
I60153
s(g4446
S'smoking'
p4696
tp4697
I6662
s(S'_START_'
p4698
S'nearby'
p4699
tp4700
I19912
s(S'_START_'
p4701
g2799
tp4702
I245785
s(g2927
g1192
tp4703
I0
s(g4603
S'his'
p4704
tp4705
I0
s(g950
g2612
tp4706
I0
s(S'small'
p4707
S'town'
p4708
tp4709
I1021289
s(S'sams'
p4710
S'is'
p4711
tp4712
I0
s(g4463
g4424
tp4713
I516
s(S'lock'
p4714
S'the'
p4715
tp4716
I272544
s(g4357
S'etc'
p4717
tp4718
I0
s(S'the'
p4719
S'rest'
p4720
tp4721
I25052266
s(S'cent'
p4722
S'more'
p4723
tp4724
I153342
s(S'accidents'
p4725
S'are'
p4726
tp4727
I100723
s(g4664
S'the'
p4728
tp4729
I1453365
s(g2865
S'at'
p4730
tp4731
I28181
s(S'should'
p4732
g3641
tp4733
I57111
s(g3179
S'geography'
p4734
tp4735
I1092
s(S'_START_'
p4736
S'all'
p4737
tp4738
I4761640
s(S'rockefeller'
p4739
g2884
tp4740
I244
s(S'thicknesses'
p4741
g1335
tp4742
I24945
s(S'boston'
p4743
g2771
tp4744
I428
s(g35
g3107
tp4745
I11550985
s(g35
S'chef'
p4746
tp4747
I86442
s(S'growing'
p4748
S'number'
p4749
tp4750
I528637
s(S'_START_'
p4751
S'that'
p4752
tp4753
I23216950
s(S'face'
p4754
S'severe'
p4755
tp4756
I12169
s(g3319
S'thickly'
p4757
tp4758
I134
s(g3359
S'was'
p4759
tp4760
I37702988
s(g2272
g3129
tp4761
I18448841
s(S'no'
p4762
g2942
tp4763
I9548
s(g662
g2796
tp4764
I99633
s(g3428
g1795
tp4765
I73953371
s(S'it'
p4766
g4485
tp4767
I226161
s(g1575
S'respond'
p4768
tp4769
I3436029
s(g4202
S'chunks'
p4770
tp4771
I655
s(g2147
S'billion'
p4772
tp4773
I6144
s(g3810
g4682
tp4774
I22192865
s(S'left'
p4775
g2335
tp4776
I1102702
s(g35
S'six'
p4777
tp4778
I1224537
s(S'virtually'
p4779
S'guaranteeing'
p4780
tp4781
I2422
s(S'the'
p4782
g1923
tp4783
I13612054
s(S'day'
p4784
S'the'
p4785
tp4786
I3101316
s(S'two'
p4787
S'villages'
p4788
tp4789
I71973
s(g2137
S'almost'
p4790
tp4791
I165
s(S'make'
p4792
S'something'
p4793
tp4794
I291247
s(S'six'
p4795
S'feet'
p4796
tp4797
I1184383
s(g3767
S'the'
p4798
tp4799
I14156448
s(S'eliminate'
p4800
S'bubbles'
p4801
tp4802
I557
s(S'the'
p4803
g2494
tp4804
I1408431
s(S'to'
p4805
S'ripleys'
p4806
tp4807
I0
s(g1725
g3006
tp4808
I206276
s(S'now'
p4809
g2383
tp4810
I34327
s(g4734
g4710
tp4811
I0
s(g1046
S'iron'
p4812
tp4813
I0
s(g2464
S'hand'
p4814
tp4815
I6855
s(g3152
g2006
tp4816
I257775
s(g3666
g1602
tp4817
I1898554
s(g3082
g3247
tp4818
I47072
s(g2772
g2525
tp4819
I0
s(S'dog'
p4820
g2015
tp4821
I10831
s(S'_START_'
p4822
g932
tp4823
I64675
s(S'climb'
p4824
S'his'
p4825
tp4826
I7134
s(S'four'
p4827
g1552
tp4828
I108833
s(g2976
g1727
tp4829
I0
s(g1768
S'cable'
p4830
tp4831
I226757
s(g4466
S'educated'
p4832
tp4833
I289310
s(S'recently'
p4834
g381
tp4835
I107267
s(S'planning'
p4836
S'_END_'
p4837
tp4838
I14659
s(S'annually'
p4839
S'_END_'
p4840
tp4841
I4805
s(S'sheriff'
p4842
S'variety'
p4843
tp4844
I0
s(g449
S'up'
p4845
tp4846
I6390501
s(S'three'
p4847
g3564
tp4848
I1859757
s(S'seventy'
p4849
g520
tp4850
I22287
s(S'is'
p4851
S'bleszinski'
p4852
tp4853
I0
s(S'is'
p4854
S'asking'
p4855
tp4856
I247192
s(S'critical'
p4857
S'temperature'
p4858
tp4859
I139606
s(S'and'
p4860
g647
tp4861
I2401495
s(g2955
S'bleszinski'
p4862
tp4863
I0
s(S'suggested'
p4864
g3663
tp4865
I7257992
s(S'cut'
p4866
S'in'
p4867
tp4868
I1654808
s(g1831
g4302
tp4869
I151353
s(S'better'
p4870
g4263
tp4871
I647707
s(g4238
g4504
tp4872
I25399
s(g2848
g2506
tp4873
I84
s(S't'
p4874
g625
tp4875
I375
s(S'housing'
p4876
S'projects'
p4877
tp4878
I150072
s(g4437
S'_END_'
p4879
tp4880
I0
s(S'underwent'
p4881
g3697
tp4882
I1042
s(S'tougher'
p4883
S'persona'
p4884
tp4885
I0
s(S'lands'
p4886
g4575
tp4887
I973751
s(S'hair'
p4888
S'grow'
p4889
tp4890
I42346
s(g2913
S'into'
p4891
tp4892
I30379
s(S'meant'
p4893
S'as'
p4894
tp4895
I184341
s(g4372
S'of'
p4896
tp4897
I105887
s(g4852
S'_END_'
p4898
tp4899
I0
s(S'were'
p4900
S'approximately'
p4901
tp4902
I179046
s(S'short'
p4903
g2485
tp4904
I3647384
s(g831
g1350
tp4905
I22069
s(S'atmosphere'
p4906
S'_END_'
p4907
tp4908
I9856
s(S'store'
p4909
g3416
tp4910
I289
s(g1483
S'the'
p4911
tp4912
I3430722
s(g3609
S'on'
p4913
tp4914
I39915
s(g4443
g2620
tp4915
I2720600
s(g412
S'babbitt'
p4916
tp4917
I105
s(S'his'
p4918
g2277
tp4919
I1405314
s(g2538
S'_END_'
p4920
tp4921
I0
s(S'reveal'
p4922
g4803
tp4923
I1601123
s(S'reaches'
p4924
S'the'
p4925
tp4926
I1546280
s(S'seems'
p4927
S'to'
p4928
tp4929
I28432667
s(S'november'
p4930
S'2006'
p4931
tp4932
I223
s(g3938
g3437
tp4933
I20713
s(g35
g2410
tp4934
I4597676
s(S'realized'
p4935
S'that'
p4936
tp4937
I4865541
s(S'vertical'
p4938
g658
tp4939
I877
s(S'he'
p4940
S'didnt'
p4941
tp4942
I0
s(S'production'
p4943
S'manager'
p4944
tp4945
I92735
s(S'elevator'
p4946
g3192
tp4947
I660
s(S'plunges'
p4948
S'but'
p4949
tp4950
I50
s(g3907
S'it'
p4951
tp4952
I22174906
s(S'development'
p4953
S'long'
p4954
tp4955
I2123
s(g1244
S'the'
p4956
tp4957
I85888030
s(S'normal'
p4958
g2997
tp4959
I122807
s(g35
S'cornucopia'
p4960
tp4961
I40780
s(g377
g99
tp4962
I2205
s(S'he'
p4963
S'asked'
p4964
tp4965
I7429862
s(S'fifteen'
p4966
g1821
tp4967
I592085
s(S'to'
p4968
g2125
tp4969
I1030924
s(S'people'
p4970
S'were'
p4971
tp4972
I4973054
s(g1842
S'pumping'
p4973
tp4974
I1092
s(S'wind'
p4975
g2309
tp4976
I29971
s(S'in'
p4977
g1430
tp4978
I2519123
s(S'slid'
p4979
g2626
tp4980
I75375
s(S'grow'
p4981
S'potatoes'
p4982
tp4983
I6504
s(S'_START_'
p4984
g35
tp4985
I28546727
s(g2402
g2107
tp4986
I433
s(S'with'
p4987
S'co2'
p4988
tp4989
I314
s(S'bleszinski'
p4990
g3909
tp4991
I0
s(S'_START_'
p4992
g1410
tp4993
I3010
s(g4675
g999
tp4994
I22157
s(S'in'
p4995
g1149
tp4996
I46169313
s(g330
g3802
tp4997
I560357
s(g3396
g235
tp4998
I1056426
s(S'was'
p4999
g2754
tp5000
I11394
s(S'anyway'
p5001
S'_END_'
p5002
tp5003
I1590
s(S'even'
p5004
S'so'
p5005
tp5006
I1035035
s(S'seventy'
p5007
g1682
tp5008
I466
s(S'held'
p5009
g35
tp5010
I2577646
s(g1049
S'_END_'
p5011
tp5012
I129861
s(g4209
g3716
tp5013
I0
s(S'forging'
p5014
g1299
tp5015
I1762
s(S'to'
p5016
S'uncover'
p5017
tp5018
I450677
s(S'_START_'
p5019
S'auto'
p5020
tp5021
I26521
s(g1819
S'that'
p5022
tp5023
I1079
s(g3554
g1286
tp5024
I455204
s(g4770
S'and'
p5025
tp5026
I31574
s(S'which'
p5027
g35
tp5028
I11570450
s(g35
g1179
tp5029
I11267706
s(g3032
S'model'
p5030
tp5031
I0
s(g2453
S'despite'
p5032
tp5033
I3377
s(g35
g4101
tp5034
I17585
s(g2102
S'and'
p5035
tp5036
I93068
s(S'2002'
p5037
g2515
tp5038
I6182
s(S'twenty'
p5039
S'five'
p5040
tp5041
I93293
s(g4596
S'in'
p5042
tp5043
I63736
s(S'reach'
p5044
g2149
tp5045
I5012
s(S'that'
p5046
g3755
tp5047
I88993100
s(S'alongside'
p5048
S'the'
p5049
tp5050
I951826
s(g4858
S'_END_'
p5051
tp5052
I46316
s(S'pit'
p5053
S'this'
p5054
tp5055
I1072
s(S'october'
p5056
S'1999'
p5057
tp5058
I0
s(S'been'
p5059
g2897
tp5060
I146152
s(g2571
S'blade'
p5061
tp5062
I57880
s(g3186
S'to'
p5063
tp5064
I3017815
s(S'then'
p5065
S'with'
p5066
tp5067
I1046802
s(S'year'
p5068
S'when'
p5069
tp5070
I566234
s(S'an'
p5071
S'elevator'
p5072
tp5073
I246727
s(g2689
S'how'
p5074
tp5075
I414074
s(g35
S'kind'
p5076
tp5077
I9837744
s(S'wire'
p5078
g3769
tp5079
I43481
s(S'global'
p5080
g901
tp5081
I4101
s(S'war'
p5082
S'was'
p5083
tp5084
I2024911
s(g316
g3143
tp5085
I1976
s(g3923
S'truth'
p5086
tp5087
I236774
s(g1090
S'in'
p5088
tp5089
I644059
s(g1715
g85
tp5090
I344810
s(g2184
S'covering'
p5091
tp5092
I2423
s(S'elevators'
p5093
S'at'
p5094
tp5095
I7772
s(g1921
g4368
tp5096
I0
s(S'those'
p5097
S'was'
p5098
tp5099
I23376
s(g3631
S'craftsmanship'
p5100
tp5101
I60473
s(S'arctic'
p5102
g3456
tp5103
I5023
s(S'at'
p5104
g2633
tp5105
I40657
s(S'1997'
p5106
S'when'
p5107
tp5108
I14130
s(g2062
S'_END_'
p5109
tp5110
I503
s(S'jackets'
p5111
S'and'
p5112
tp5113
I139723
s(g4884
S'around'
p5114
tp5115
I256
s(g2936
g2035
tp5116
I40
s(g1891
S'paper'
p5117
tp5118
I893
s(S'was'
p5119
g738
tp5120
I1006
s(S'pumps'
p5121
S'_END_'
p5122
tp5123
I7643
s(S'cold'
p5124
S'steel'
p5125
tp5126
I57352
s(S'neighbors'
p5127
S'_END_'
p5128
tp5129
I2637
s(g1150
S'rating'
p5130
tp5131
I284
s(g35
S'great'
p5132
tp5133
I43050109
s(S'tranberg'
p5134
g2315
tp5135
I0
s(g35
S'pumpkin'
p5136
tp5137
I68227
s(g3745
S'someone'
p5138
tp5139
I11278
s(g626
g3154
tp5140
I244071
s(g3217
S'he'
p5141
tp5142
I2185
s(g2444
g3952
tp5143
I4532961
s(S'master'
p5144
g2852
tp5145
I0
s(S'entrance'
p5146
g3390
tp5147
I8414
s(g4843
g1711
tp5148
I575722
s(S'the'
p5149
g2299
tp5150
I443490
s(S'the'
p5151
S'danish'
p5152
tp5153
I834
s(g4544
S'of'
p5154
tp5155
I10977391
s(S'recognized'
p5156
S'as'
p5157
tp5158
I2649888
s(g35
g2710
tp5159
I12586
s(S'that'
p5160
S'depend'
p5161
tp5162
I194853
s(g2181
S'darfur'
p5163
tp5164
I0
s(S'intense'
p5165
S'that'
p5166
tp5167
I157089
s(S'detail'
p5168
g3072
tp5169
I42242
s(g549
S'year'
p5170
tp5171
I2377953
s(g4063
S'open'
p5172
tp5173
I11807
s(g1582
g35
tp5174
I155147
s(g1510
g4743
tp5175
I1796
s(S'the'
p5176
g3385
tp5177
I233449
s(g3549
S'home'
p5178
tp5179
I1218
s(S'they'
p5180
S'were'
p5181
tp5182
I73584700
s(S'the'
p5183
g1316
tp5184
I843587
s(S'at'
p5185
g35
tp5186
I59349637
s(S'is'
p5187
g3300
tp5188
I2766479
s(S'most'
p5189
g1305
tp5190
I0
s(S'to'
p5191
S'more'
p5192
tp5193
I4050474
s(S'island'
p5194
S'set'
p5195
tp5196
I2296
s(S'past'
p5197
g3567
tp5198
I423939
s(g3338
g2227
tp5199
I2517
s(S'last'
p5200
g4847
tp5201
I1210476
s(g4385
g35
tp5202
I13366448
s(S'of'
p5203
g4299
tp5204
I79679
s(g2647
g1072
tp5205
I0
s(g890
g301
tp5206
I506238
s(g645
S'opposed'
p5207
tp5208
I3092406
s(S'had'
p5209
S'no'
p5210
tp5211
I23304653
s(S'the'
p5212
S'north'
p5213
tp5214
I10135899
s(g4161
g3009
tp5215
I0
s(S'of'
p5216
g1630
tp5217
I184797
s(g3012
S'wielding'
p5218
tp5219
I0
s(S'society'
p5220
S'kramer'
p5221
tp5222
I0
s(S'his'
p5223
S'earlobes'
p5224
tp5225
I4535
s(g168
S'so'
p5226
tp5227
I1980154
s(g4192
S'this'
p5228
tp5229
I7144
s(g1850
g4966
tp5230
I1045196
s(S'what'
p5231
S'in'
p5232
tp5233
I726443
s(S'watch'
p5234
g1008
tp5235
I68984
s(g35
g4407
tp5236
I408
s(S'to'
p5237
g5044
tp5238
I8111767
s(S'himself'
p5239
S'or'
p5240
tp5241
I903469
s(S'experienced'
p5242
g323
tp5243
I110
s(g4053
S'narrows'
p5244
tp5245
I19045
s(g2755
g898
tp5246
I12531519
s(S'bangs'
p5247
S'twirled'
p5248
tp5249
I0
s(g2177
g1917
tp5250
I95406
s(g603
g35
tp5251
I10726
s(g637
S'the'
p5252
tp5253
I31479
s(g4814
g836
tp5254
I946
s(S'turn'
p5255
S'at'
p5256
tp5257
I255832
s(S'two'
p5258
S'per'
p5259
tp5260
I245523
s(S'way'
p5261
g3484
tp5262
I3006916
s(S'so'
p5263
g4940
tp5264
I6151905
s(g2470
g1454
tp5265
I68349
s(g2963
g5255
tp5266
I8323600
s(S'visitor'
p5267
S'away'
p5268
tp5269
I1175
s(S'sight'
p5270
S'of'
p5271
tp5272
I7777238
s(g837
S'six'
p5273
tp5274
I3304007
s(S'grinding'
p5275
g2587
tp5276
I51301
s(S'look'
p5277
g35
tp5278
I402089
s(g5098
g35
tp5279
I144553062
s(g3111
g4679
tp5280
I3212
s(g4366
S'has'
p5281
tp5282
I0
s(g3787
S'sams'
p5283
tp5284
I81
s(g2717
g35
tp5285
I840327
s(S'once'
p5286
g35
tp5287
I3782442
s(g35
g981
tp5288
I152259
s(S'that'
p5289
S'hug'
p5290
tp5291
I6583
s(g3600
g264
tp5292
I21794715
s(g2461
g35
tp5293
I25455237
s(S'they'
p5294
S'can'
p5295
tp5296
I18639274
s(g99
g1388
tp5297
I40485
s(g3248
S'_END_'
p5298
tp5299
I3244
s(g2777
S'fuels'
p5300
tp5301
I244031
s(g35
S'meat'
p5302
tp5303
I203830
s(g4901
g35
tp5304
I203310
s(g543
S'stopped'
p5305
tp5306
I14803
s(S'invisible'
p5307
S'within'
p5308
tp5309
I4170
s(S'he'
p5310
g1101
tp5311
I303778
s(g3814
S'the'
p5312
tp5313
I10030830
s(g35
g1920
tp5314
I0
s(g4960
g2704
tp5315
I46426
s(S'_START_'
p5316
S'when'
p5317
tp5318
I5972040
s(S'the'
p5319
S'device'
p5320
tp5321
I1640346
s(S'but'
p5322
g2860
tp5323
I20896228
s(S'few'
p5324
S'minutes'
p5325
tp5326
I5518516
s(g3980
g3318
tp5327
I60077
s(g4347
g3503
tp5328
I0
s(g4502
g5267
tp5329
I859298
s(g3065
S'page'
p5330
tp5331
I60
s(g561
g3650
tp5332
I1729877
s(S'its'
p5333
S'share'
p5334
tp5335
I484938
s(g1353
S'bob'
p5336
tp5337
I18463
s(S'were'
p5338
g3511
tp5339
I952773
s(g1109
S'according'
p5340
tp5341
I0
s(S'their'
p5342
g5127
tp5343
I720164
s(g4941
g2296
tp5344
I0
s(S'describes'
p5345
S'as'
p5346
tp5347
I349908
s(g3266
g2345
tp5348
I7576020
s(S'now'
p5349
g4055
tp5350
I761
s(S'he'
p5351
g2573
tp5352
I361600
s(S'director'
p5353
S'eli'
p5354
tp5355
I0
s(g444
S'will'
p5356
tp5357
I14290360
s(g3091
g180
tp5358
I558665
s(g99
g3189
tp5359
I1356
s(S'he'
p5360
g5209
tp5361
I105941120
s(g506
S'remains'
p5362
tp5363
I12551
s(g3174
g4963
tp5364
I3768
s(g1686
S'plummeting'
p5365
tp5366
I0
s(S'the'
p5367
S'kramer'
p5368
tp5369
I0
s(g1793
g4266
tp5370
I0
s(g4944
g5104
tp5371
I144441
s(S'like'
p5372
S'much'
p5373
tp5374
I133028
s(g150
S'an'
p5375
tp5376
I22750654
s(S'5'
p5377
S'times'
p5378
tp5379
I223423
s(S'point'
p5380
S'we'
p5381
tp5382
I441131
s(S'game'
p5383
S'blaster'
p5384
tp5385
I0
s(g35
S'sort'
p5386
tp5387
I6276743
s(S'kramer'
p5388
S'is'
p5389
tp5390
I0
s(g2056
g73
tp5391
I35542350
s(g2252
S'the'
p5392
tp5393
I504232
s(S'hundred'
p5394
S'plates'
p5395
tp5396
I4789
s(S'_START_'
p5397
S'before'
p5398
tp5399
I723906
s(S'three'
p5400
g476
tp5401
I3683351
s(g5172
g5263
tp5402
I98454
s(S'been'
p5403
S'either'
p5404
tp5405
I211508
s(g5207
g3884
tp5406
I6898294
s(g2790
S'exchange'
p5407
tp5408
I3824
s(g2486
g517
tp5409
I0
s(g959
g5014
tp5410
I0
s(S'more'
p5411
g1708
tp5412
I358713
s(S'manglings'
p5413
g641
tp5414
I0
s(g1897
S'design'
p5415
tp5416
I5625612
s(g2829
S'calm'
p5417
tp5418
I8071
s(S'residents'
p5419
S'of'
p5420
tp5421
I1443254
s(g2749
S'removed'
p5422
tp5423
I48
s(S'occur'
p5424
S'in'
p5425
tp5426
I6494306
s(g35
g560
tp5427
I28518
s(g35
S'week'
p5428
tp5429
I10692245
s(g3460
S'pushed'
p5430
tp5431
I405581
s(g5384
g3542
tp5432
I0
s(g5356
g787
tp5433
I1838521
s(S'pretty'
p5434
g669
tp5435
I422229
s(g2111
S'of'
p5436
tp5437
I21358171
s(S'streets'
p5438
g4226
tp5439
I3341
s(S'butter'
p5440
S'_END_'
p5441
tp5442
I69350
s(g3190
g3382
tp5443
I18530450
s(g2378
g1370
tp5444
I12355
s(g2862
g1045
tp5445
I13055
s(S'constantly'
p5446
S'on'
p5447
tp5448
I247270
s(g35
g1950
tp5449
I6926070
s(S'for'
p5450
S'three'
p5451
tp5452
I4949103
s(g2651
S'structural'
p5453
tp5454
I1638
s(S'recipes'
p5455
S'forging'
p5456
tp5457
I0
s(S'fathers'
p5458
S'death'
p5459
tp5460
I5289
s(S'tinkering'
p5461
S'with'
p5462
tp5463
I84704
s(S'cool'
p5464
S'enough'
p5465
tp5466
I84336
s(g1190
S'passed'
p5467
tp5468
I336464
s(g35
S'pair'
p5469
tp5470
I5437686
s(g1641
S'was'
p5471
tp5472
I61183
s(S'throughout'
p5473
g3280
tp5474
I18329357
s(S'car'
p5475
g2774
tp5476
I470462
s(S'got'
p5477
g3608
tp5478
I420172
s(g5072
g4609
tp5479
I43017
s(S'days'
p5480
S'and'
p5481
tp5482
I2729957
s(g4390
g4506
tp5483
I2199
s(g1183
g2072
tp5484
I0
s(g806
g298
tp5485
I0
s(g776
g3661
tp5486
I288614
s(g5130
S'article'
p5487
tp5488
I0
s(g3201
g4900
tp5489
I71549
s(g5224
g5009
tp5490
I0
s(g4145
g1435
tp5491
I294254
s(g4534
g273
tp5492
I1229203
s(S'weapons'
p5493
g3890
tp5494
I987
s(S'_START_'
p5495
g3819
tp5496
I9298711
s(S'is'
p5497
S'ablaze'
p5498
tp5499
I11053
s(S'will'
p5500
g3724
tp5501
I128500
s(g2140
g2491
tp5502
I277072
s(S'samsinger'
p5503
g4627
tp5504
I0
s(S'designed'
p5505
S'_END_'
p5506
tp5507
I3061
s(S'in'
p5508
g2040
tp5509
I1445823489
s(S'night'
p5510
g5450
tp5511
I553981
s(S'it'
p5512
S'felt'
p5513
tp5514
I671569
s(g5181
g4479
tp5515
I1724527
s(S'tons'
p5516
S'and'
p5517
tp5518
I149835
s(g1406
g1385
tp5519
I171485
s(g4496
g3522
tp5520
I0
s(g35
S'result'
p5521
tp5522
I18827623
s(S'been'
p5523
g5505
tp5524
I593096
s(g1553
g4943
tp5525
I4121
s(S'swordsmen'
p5526
S'before'
p5527
tp5528
I56
s(g3369
S'building'
p5529
tp5530
I8999268
s(g3114
S'button'
p5531
tp5532
I2783
s(g4556
S'corners'
p5533
tp5534
I0
s(g4867
S'half'
p5535
tp5536
I1717239
s(S'while'
p5537
g1485
tp5538
I6689889
s(S'shaft'
p5539
S'may'
p5540
tp5541
I15529
s(S'the'
p5542
S'hallmarks'
p5543
tp5544
I99865
s(S'car'
p5545
g3330
tp5546
I2945
s(S'truncheon'
p5547
g491
tp5548
I0
s(S'another'
p5549
g2685
tp5550
I18860
s(g503
S'the'
p5551
tp5552
I9507
s(S'fireball'
p5553
g5349
tp5554
I55
s(S'the'
p5555
g2355
tp5556
I17220342
s(S'square'
p5557
S'gas'
p5558
tp5559
I95
s(g3211
S'_END_'
p5560
tp5561
I76
s(S'at'
p5562
g2575
tp5563
I8171696
s(g2663
S'to'
p5564
tp5565
I6880851
s(S'student'
p5566
g824
tp5567
I0
s(g3677
S'7th'
p5568
tp5569
I0
s(g861
S'someone'
p5570
tp5571
I16782
s(g3206
S'six'
p5572
tp5573
I366
s(S'are'
p5574
S'being'
p5575
tp5576
I5503133
s(S'to'
p5577
g1394
tp5578
I1840909
s(S'is'
p5579
g907
tp5580
I2265314
s(g1139
S'_END_'
p5581
tp5582
I1241
s(S'_START_'
p5583
g4687
tp5584
I719859
s(g438
S'top'
p5585
tp5586
I5204133
s(g4306
S'about'
p5587
tp5588
I1059354
s(S'he'
p5589
S'pressed'
p5590
tp5591
I313281
s(g4610
S'fall'
p5592
tp5593
I75110
s(S'to'
p5594
S'handle'
p5595
tp5596
I3912530
s(g2758
g10
tp5597
I351622
s(g468
S'its'
p5598
tp5599
I924511
s(g3474
S'birth'
p5600
tp5601
I2973284
s(S'sales'
p5602
g2831
tp5603
I0
s(g5375
S'act'
p5604
tp5605
I4556885
s(g1659
S'up'
p5606
tp5607
I33162
s(g2343
S'bend'
p5608
tp5609
I134
s(S'jostle'
p5610
S'the'
p5611
tp5612
I6243
s(S'_START_'
p5613
g4329
tp5614
I21616234
s(g1339
S'buckled'
p5615
tp5616
I375
s(g50
S'several'
p5617
tp5618
I205558
s(g4422
S'_END_'
p5619
tp5620
I25815
s(g2982
S'_END_'
p5621
tp5622
I565
s(S'it'
p5623
g2929
tp5624
I27706598
s(S'were'
p5625
S'on'
p5626
tp5627
I4255587
s(S'with'
p5628
g3261
tp5629
I298792
s(g4138
S'of'
p5630
tp5631
I95508312
s(S'bowl'
p5632
S'of'
p5633
tp5634
I927328
s(S'of'
p5635
S'bleszinskis'
p5636
tp5637
I0
s(g2763
g338
tp5638
I6179268
s(S'smack'
p5639
S'in'
p5640
tp5641
I59232
s(S'last'
p5642
g4292
tp5643
I800
s(g190
S'for'
p5644
tp5645
I7669372
s(S'dioxide'
p5646
S'is'
p5647
tp5648
I219397
s(g1383
g1302
tp5649
I0
s(S'_START_'
p5650
g3611
tp5651
I375729
s(g4806
g4499
tp5652
I0
s(g1320
g1280
tp5653
I1753390
s(S'the'
p5654
g5261
tp5655
I47623393
s(g4683
g3034
tp5656
I24401
s(S'he'
p5657
S'seemed'
p5658
tp5659
I2261217
s(S'greg'
p5660
S'_END_'
p5661
tp5662
I0
s(S'it'
p5663
g3069
tp5664
I166024860
s(S'splatter'
p5665
S'film'
p5666
tp5667
I405
s(g4233
g3004
tp5668
I0
s(g99
S'get'
p5669
tp5670
I9179
s(S'on'
p5671
g802
tp5672
I11564070
s(S'brown'
p5673
S'hair'
p5674
tp5675
I626656
s(g4936
g848
tp5676
I6901997
s(S'the'
p5677
g5419
tp5678
I786194
s(g2257
S'is'
p5679
tp5680
I40136
s(g5389
S'one'
p5681
tp5682
I24277347
s(S'which'
p5683
S'attempt'
p5684
tp5685
I67325
s(g3422
g3761
tp5686
I25510
s(S'stand'
p5687
g3665
tp5688
I1043754
s(S'is'
p5689
g1523
tp5690
I637328
s(S'sets'
p5691
S'the'
p5692
tp5693
I1037168
s(g4420
S'art'
p5694
tp5695
I146977
s(g3514
g5168
tp5696
I4603002
s(g26
S'necessary'
p5697
tp5698
I37448
s(g2016
g4927
tp5699
I17292
s(S'still'
p5700
g408
tp5701
I2765189
s(g2803
g35
tp5702
I152501
s(g896
g2055
tp5703
I55681
s(g2244
g2189
tp5704
I3522
s(S'_START_'
p5705
S'for'
p5706
tp5707
I30650041
s(g4825
g4975
tp5708
I40520
s(g2592
S'as'
p5709
tp5710
I7443346
s(S'his'
p5711
g4566
tp5712
I92290
s(g5456
g1824
tp5713
I450
s(S'hoist'
p5714
g3712
tp5715
I375
s(S'the'
p5716
S'oversized'
p5717
tp5718
I41735
s(g2291
g1421
tp5719
I425411
s(g4360
S'sat'
p5720
tp5721
I51445
s(S'manufactured'
p5722
S'_END_'
p5723
tp5724
I3486
s(g35
g1152
tp5725
I75845
s(g3972
S'and'
p5726
tp5727
I642758
s(g214
g1482
tp5728
I391
s(g3098
S'_END_'
p5729
tp5730
I51846
s(S'at'
p5731
g5377
tp5732
I830422
s(g5057
S'_END_'
p5733
tp5734
I102751
s(S'_START_'
p5735
g3157
tp5736
I2222414
s(S'me'
p5737
S'_END_'
p5738
tp5739
I157569
s(S'but'
p5740
g2970
tp5741
I23157081
s(g2973
S'of'
p5742
tp5743
I231960
s(S'wider'
p5744
S'culture'
p5745
tp5746
I15352
s(S'some'
p5747
g4584
tp5748
I73526
s(g1888
g3241
tp5749
I5159714
s(S'weight'
p5750
S'_END_'
p5751
tp5752
I44099
s(S'was'
p5753
g4893
tp5754
I911235
s(S'photographs'
p5755
g4677
tp5756
I1072093
s(g4830
g2693
tp5757
I18082
s(g3672
S'its'
p5758
tp5759
I5494885
s(g5535
S'_END_'
p5760
tp5761
I22030
s(S'kramer'
p5762
g3968
tp5763
I0
s(g1674
S'treating'
p5764
tp5765
I30882
s(g5195
g3531
tp5766
I983005
s(S'about'
p5767
S'twenty'
p5768
tp5769
I1734091
s(S'molelike'
p5770
S'creatures'
p5771
tp5772
I66
s(S'cost'
p5773
g1705
tp5774
I15847
s(g5694
S'importer'
p5775
tp5776
I69
s(g4971
S'killed'
p5777
tp5778
I1781504
s(g5
S'incident'
p5779
tp5780
I148
s(S'reef'
p5781
g2808
tp5782
I2148
s(S'inside'
p5783
S'_END_'
p5784
tp5785
I9491
s(g4148
S'_START_s'
p5786
tp5787
I0
s(g1760
g947
tp5788
I6703120
s(S'plunged'
p5789
S'to'
p5790
tp5791
I39976
s(g936
S'out'
p5792
tp5793
I62
s(S'_START_'
p5794
S'traction'
p5795
tp5796
I9624
s(g2166
g5027
tp5797
I104165033
s(g3751
g585
tp5798
I460690
s(S'knife'
p5799
g3053
tp5800
I76
s(g4524
g644
tp5801
I5913
s(S'but'
p5802
S'on'
p5803
tp5804
I3902990
s(g2236
g4276
tp5805
I4717858
s(S'and'
p5806
S'im'
p5807
tp5808
I34713
s(g2725
g3674
tp5809
I9515704
s(g4051
g5714
tp5810
I0
s(S'in'
p5811
g5093
tp5812
I16210
s(g1112
g2213
tp5813
I1888554
s(g5381
g3838
tp5814
I21735528
s(S'years'
p5815
g1158
tp5816
I1482405
s(g2208
S'cables'
p5817
tp5818
I442
s(S'nearly'
p5819
g537
tp5820
I35285
s(S'annual'
p5821
S'rate'
p5822
tp5823
I338795
s(g1380
g4938
tp5824
I6480
s(S'of'
p5825
g2558
tp5826
I395221
s(S'elevator'
p5827
S'with'
p5828
tp5829
I34115
s(S'just'
p5830
g1849
tp5831
I24679
s(g3055
g4190
tp5832
I2342739
s(g4671
g4230
tp5833
I25723621
s(S'insatiable'
p5834
S'search'
p5835
tp5836
I737
s(g5152
g3786
tp5837
I0
s(g1535
S'nickel'
p5838
tp5839
I276109
s(g35
S'butcher'
p5840
tp5841
I235369
s(g2498
S'punk'
p5842
tp5843
I70
s(g5290
S'the'
p5844
tp5845
I70534
s(g1166
g5602
tp5846
I0
s(S'one'
p5847
g4387
tp5848
I12954436
s(g5835
g4036
tp5849
I5625967
s(S'knife'
p5850
S'and'
p5851
tp5852
I595455
s(g4896
g1739
tp5853
I1397576
s(S'unwise'
p5854
S'to'
p5855
tp5856
I284368
s(g3438
S'capable'
p5857
tp5858
I2233573
s(S'leather'
p5859
g5111
tp5860
I35503
s(g296
g3991
tp5861
I100114
s(g3485
g35
tp5862
I168944
s(g35
g2604
tp5863
I1263027
s(S'the'
p5864
S'ringing'
p5865
tp5866
I255303
s(g239
g2419
tp5867
I0
s(S'steel'
p5868
g5455
tp5869
I0
s(g4287
S'humor'
p5870
tp5871
I1364738
s(g3562
S'recounts'
p5872
tp5873
I0
s(g5459
S'the'
p5874
tp5875
I461064
s(g5252
g2248
tp5876
I19825623
s(g2968
g4088
tp5877
I176602
s(S'car'
p5878
S'quickly'
p5879
tp5880
I4968
s(S'snow'
p5881
g3548
tp5882
I13679
s(g5054
g1996
tp5883
I908280
s(S'by'
p5884
g2003
tp5885
I19653
s(S'the'
p5886
S'cables'
p5887
tp5888
I175097
s(S'thick'
p5889
S'of'
p5890
tp5891
I226492
s(g35
S'commercial'
p5892
tp5893
I1517456
s(S'popped'
p5894
S'in'
p5895
tp5896
I39774
s(S'metallurgy'
p5897
g5683
tp5898
I936
s(g1955
S'terrazzo'
p5899
tp5900
I5939
s(g2368
g4315
tp5901
I4689876
s(S'them'
p5902
g5789
tp5903
I2784
s(g5709
S'he'
p5904
tp5905
I51735256
s(S'steel'
p5906
g422
tp5907
I311
s(g4067
S'has'
p5908
tp5909
I15493421
s(g4285
g868
tp5910
I566172
s(g3836
g1623
tp5911
I9086
s(g35
g1251
tp5912
I1414225
s(g4427
S'withdrawn'
p5913
tp5914
I0
s(g1964
S'city'
p5915
tp5916
I4896
s(S'the'
p5917
S'video'
p5918
tp5919
I834500
s(S'was'
p5920
g1896
tp5921
I2691
s(S'governor'
p5922
S'cable'
p5923
tp5924
I0
s(g1477
S'to'
p5925
tp5926
I352937
s(S'the'
p5927
S'amalgams'
p5928
tp5929
I2731
s(g35
S'conventional'
p5930
tp5931
I852476
s(g371
g4198
tp5932
I12745050
s(S'beetle'
p5933
g1237
tp5934
I1493
s(g994
S'chef'
p5935
tp5936
I2635
s(g5529
S'was'
p5937
tp5938
I1098994
s(S'least'
p5939
S'fifteen'
p5940
tp5941
I114678
s(S'and'
p5942
g3250
tp5943
I951323
s(S'and'
p5944
S'gloves'
p5945
tp5946
I176353
s(g5775
g2243
tp5947
I308
s(S'blade'
p5948
g1871
tp5949
I0
s(g3233
S'strawberries'
p5950
tp5951
I53053
s(S'he'
p5952
S'professes'
p5953
tp5954
I66404
s(g2169
g3943
tp5955
I2717459
s(g5899
S'floors'
p5956
tp5957
I4133
s(S'mad'
p5958
S'alchemist'
p5959
tp5960
I160
s(g1785
S'when'
p5961
tp5962
I19191
s(g2214
g4918
tp5963
I55118
s(S'blacksmiths'
p5964
S'shop'
p5965
tp5966
I320
s(S'week'
p5967
g2082
tp5968
I314
s(S'fog'
p5969
S'and'
p5970
tp5971
I166545
s(g2979
g35
tp5972
I11191069
s(g2843
S'huffing'
p5973
tp5974
I41
s(g5354
S'roth'
p5975
tp5976
I0
s(S'jock'
p5977
S'kid'
p5978
tp5979
I0
s(S'expos'
p5980
S'over'
p5981
tp5982
I0
s(g35
g5958
tp5983
I467859
s(g3119
S'last'
p5984
tp5985
I1274
s(S'would'
p5986
g1699
tp5987
I117617005
s(S'director'
p5988
g99
tp5989
I352
s(g4408
S'in'
p5990
tp5991
I2158485
s(S'an'
p5992
g3011
tp5993
I4048
s(g3272
g878
tp5994
I575076
s(S'minutes'
p5995
g1640
tp5996
I15324
s(S'the'
p5997
g993
tp5998
I35867245
s(S'but'
p5999
g178
tp6000
I2006109
s(S'papers'
p6001
g2029
tp6002
I1116
s(g1153
S'and'
p6003
tp6004
I0
s(S'his'
p6005
g3277
tp6006
I4685
s(S'had'
p6007
S'switched'
p6008
tp6009
I63057
s(S'out'
p6010
g4183
tp6011
I785
s(g35
g3333
tp6012
I63359
s(S'worried'
p6013
g3100
tp6014
I786
s(g3158
S'wanted'
p6015
tp6016
I5826067
s(g5745
S'_END_'
p6017
tp6018
I19136
s(g1912
S'_END_'
p6019
tp6020
I69679
s(S'express'
p6021
g5827
tp6022
I4770
s(S'the'
p6023
S'top'
p6024
tp6025
I20732638
s(g1076
S'_END_'
p6026
tp6027
I1918
s(g5527
g16
tp6028
I5022527
s(g2734
g3340
tp6029
I27769210
s(S'time'
p6030
g70
tp6031
I3582089
s(S'map'
p6032
g40
tp6033
I25308
s(S'his'
p6034
S'knives'
p6035
tp6036
I9400
s(g1064
g2348
tp6037
I0
s(S'it'
p6038
g1095
tp6039
I30516417
s(g4131
S'have'
p6040
tp6041
I17531188
s(g3612
g5995
tp6042
I774658
s(S'the'
p6043
S'same'
p6044
tp6045
I198808952
s(g1348
S'on'
p6046
tp6047
I255480
s(S'the'
p6048
g5102
tp6049
I146022
s(g2878
S'and'
p6050
tp6051
I1911549
s(S'they'
p6052
g4551
tp6053
I6680928
s(g4126
S'in'
p6054
tp6055
I923376
s(g35
S'close'
p6056
tp6057
I3977694
s(g1653
S'he'
p6058
tp6059
I78
s(S'small'
p6060
g4279
tp6061
I107346
s(g489
g2142
tp6062
I0
s(g1609
S'at'
p6063
tp6064
I2666
s(S'is'
p6065
S'to'
p6066
tp6067
I78615036
s(S'laid'
p6068
g2437
tp6069
I45282
s(S'few'
p6070
S'months'
p6071
tp6072
I3524298
s(S'when'
p6073
S'carbon'
p6074
tp6075
I16364
s(S'of'
p6076
g1908
tp6077
I4580680
s(g4295
g2413
tp6078
I789006
s(S'if'
p6079
S'we'
p6080
tp6081
I18544778
s(S'_START_'
p6082
g531
tp6083
I2597
s(g2025
S'carolina'
p6084
tp6085
I1788
s(S'revealed'
p6086
S'_END_'
p6087
tp6088
I2162
s(S'school'
p6089
g227
tp6090
I166401
s(g5320
g2362
tp6091
I172
s(g3388
S'wealthy'
p6092
tp6093
I34020
s(S'county'
p6094
g4842
tp6095
I38625
s(g1874
g4666
tp6096
I52977
s(S'the'
p6097
g752
tp6098
I14670018
s(S'two'
p6099
S'rolaids'
p6100
tp6101
I0
s(S'cigarette'
p6102
S'he'
p6103
tp6104
I13814
s(g5558
S'fired'
p6105
tp6106
I8547
s(S'as'
p6107
g6079
tp6108
I39268322
s(S'which'
p6109
g470
tp6110
I0
s(g3615
g2359
tp6111
I119638
s(S'normally'
p6112
S'uses'
p6113
tp6114
I11291
s(g2363
S'safeties'
p6115
tp6116
I3519
s(g1578
g1032
tp6117
I147375048
s(g3603
g5854
tp6118
I36914
s(g1015
g3686
tp6119
I10518057
s(g1530
S'get'
p6120
tp6121
I53328807
s(S'to'
p6122
g4305
tp6123
I5235553
s(g4418
S'manhattan'
p6124
tp6125
I337
s(S'displacement'
p6126
S'the'
p6127
tp6128
I7017
s(S'kramer'
p6129
g6112
tp6130
I0
s(S'short'
p6131
g4602
tp6132
I1787534
s(g3621
g4066
tp6133
I0
s(g5248
S'up'
p6134
tp6135
I1328
s(g4521
S'are'
p6136
tp6137
I1868
s(g5959
S'he'
p6138
tp6139
I220
s(g3441
S'braves'
p6140
tp6141
I45493
s(S'_START_'
p6142
g5999
tp6143
I78594595
s(g2349
g5333
tp6144
I4554160
s(g595
g1838
tp6145
I101089
s(S'2003'
p6146
S'instead'
p6147
tp6148
I137
s(g35
S'billion'
p6149
tp6150
I375348
s(S'extinction'
p6151
S'_END_'
p6152
tp6153
I1383
s(S'fire'
p6154
S'smoke'
p6155
tp6156
I4299
s(g3298
g5424
tp6157
I1218188
s(g5373
S'but'
p6158
tp6159
I109381
s(S'can'
p6160
g827
tp6161
I1157583
s(S'way'
p6162
S'that'
p6163
tp6164
I7407841
s(S'an'
p6165
S'average'
p6166
tp6167
I4686590
s(S'knife'
p6168
S'in'
p6169
tp6170
I320524
s(S'stop'
p6171
g5461
tp6172
I520
s(g1872
g1643
tp6173
I291786
s(g1186
S'animal'
p6174
tp6175
I1010158
s(S'one'
p6176
S'_END_'
p6177
tp6178
I139000
s(g2085
S'that'
p6179
tp6180
I10074468
s(g2129
S'two'
p6181
tp6182
I296111
s(S'_START_'
p6183
S'today'
p6184
tp6185
I223764
s(S'world'
p6186
S'and'
p6187
tp6188
I4252177
s(g5803
S'this'
p6189
tp6190
I22606346
s(g2523
g726
tp6191
I82
s(g3639
S'forced'
p6192
tp6193
I257228
s(S'to'
p6194
S'bed'
p6195
tp6196
I4427342
s(g733
S'as'
p6197
tp6198
I376355
s(g6166
S'of'
p6199
tp6200
I3435211
s(S'outrageousness'
p6201
g64
tp6202
I0
s(g3891
g3487
tp6203
I30394
s(S'bulgy'
p6204
S'in'
p6205
tp6206
I244
s(g5451
g5480
tp6207
I4553282
s(g4855
S'for'
p6208
tp6209
I1810485
s(S'without'
p6210
S'him'
p6211
tp6212
I584190
s(g1392
g3747
tp6213
I649196
s(g4752
g5986
tp6214
I19588482
s(g3578
g35
tp6215
I368984
s(S'harming'
p6216
g1460
tp6217
I0
s(g35
S'band'
p6218
tp6219
I1518656
s(g5956
g1
tp6220
I173
s(S'cool'
p6221
S'_END_'
p6222
tp6223
I3703
s(S'many'
p6224
g134
tp6225
I16494
s(S'finally'
p6226
g4714
tp6227
I314
s(g268
g2503
tp6228
I19740770
s(g35
g152
tp6229
I323652
s(S'each'
p6230
g5503
tp6231
I0
s(S'jrgen'
p6232
g683
tp6233
I0
s(g2294
g3407
tp6234
I102
s(S'win'
p6235
g4533
tp6236
I0
s(g5141
g2246
tp6237
I1235081
s(g2995
S'by'
p6238
tp6239
I226213
s(g5317
g2160
tp6240
I51053
s(g2800
S'away'
p6241
tp6242
I718003
s(g3546
g4062
tp6243
I2299157
s(S'rainfall'
p6244
g926
tp6245
I10877
s(g1631
S'_END_'
p6246
tp6247
I41946
s(g1021
S'by'
p6248
tp6249
I129168
s(S'memories'
p6250
S'is'
p6251
tp6252
I35893
s(g2516
S'to'
p6253
tp6254
I1644128
s(g6174
g1878
tp6255
I234540
s(g4312
g3140
tp6256
I960722928
s(S'_START_'
p6257
g99
tp6258
I6104333
s(S'the'
p6259
g5969
tp6260
I761817
s(g745
g31
tp6261
I4846065
s(S'2001'
p6262
g3403
tp6263
I6445
s(S'chef'
p6264
g99
tp6265
I0
s(g5531
g275
tp6266
I310
s(g3928
g2367
tp6267
I8310753
s(g2478
g1441
tp6268
I7600458
s(g3116
g5237
tp6269
I254002
s(S'quarter'
p6270
g5689
tp6271
I61057
s(S'than'
p6272
g4511
tp6273
I3105546
s(S'of'
p6274
g5097
tp6275
I36194199
s(S'_START_'
p6276
S'bleszinski'
p6277
tp6278
I0
s(S'of'
p6279
g4257
tp6280
I4425632
s(g4746
g5322
tp6281
I826
s(S'world'
p6282
g5187
tp6283
I4318683
s(g2767
g523
tp6284
I2772
s(S'epic'
p6285
g3965
tp6286
I311
s(S'let'
p6287
S'his'
p6288
tp6289
I905387
s(g3417
g4171
tp6290
I238427
s(S'the'
p6291
g3430
tp6292
I6543572
s(g1558
S'seattle'
p6293
tp6294
I0
s(g2988
g4074
tp6295
I105872
s(S'_START_'
p6296
g1373
tp6297
I1511278
s(g2365
g2342
tp6298
I20719
s(g5617
g4201
tp6299
I600
s(g6277
g2434
tp6300
I0
s(S'be'
p6301
g5446
tp6302
I397638
s(g3606
S'of'
p6303
tp6304
I312648
s(g5842
g4376
tp6305
I0
s(g2708
S'cubic'
p6306
tp6307
I18362
s(g2360
S'meaning'
p6308
tp6309
I0
s(g4248
g170
tp6310
I0
s(S'equatorial'
p6311
g1593
tp6312
I0
s(g4527
g58
tp6313
I180925
s(S'illustrated'
p6314
g2191
tp6315
I0
s(S'its'
p6316
g4953
tp6317
I831691
s(g3888
S'atmospheric'
p6318
tp6319
I0
s(S'anything'
p6320
S'drastic'
p6321
tp6322
I4971
s(g35
g4188
tp6323
I85405
s(S'to'
p6324
g3219
tp6325
I8042945
s(g3476
S'the'
p6326
tp6327
I276481
s(g1780
g4827
tp6328
I11158
s(S'saw'
p6329
g49
tp6330
I3766
s(S'contributing'
p6331
S'to'
p6332
tp6333
I1447639
s(g5422
S'the'
p6334
tp6335
I1223812
s(S'year'
p6336
g3722
tp6337
I12937
s(S'he'
p6338
g6287
tp6339
I845463
s(g2656
S'_END_'
p6340
tp6341
I137487
s(g2737
g1362
tp6342
I6070816
s(g418
S'arrival'
p6343
tp6344
I2713151
s(g3457
g2431
tp6345
I32448
s(g99
g6235
tp6346
I1213
s(g3950
g1291
tp6347
I12665
s(S'_START_'
p6348
g4450
tp6349
I0
s(S'but'
p6350
S'alive'
p6351
tp6352
I40180
s(g65
S'on'
p6353
tp6354
I0
s(S'various'
p6355
S'forms'
p6356
tp6357
I1328679
s(g4070
S'of'
p6358
tp6359
I5677770
s(g5636
S'earliest'
p6360
tp6361
I0
s(g2681
S'bleszinski'
p6362
tp6363
I0
s(g2634
g1466
tp6364
I9533
s(g2281
g2274
tp6365
I3388
s(g5666
g5353
tp6366
I75657
s(g1311
S'_END_'
p6367
tp6368
I28011
s(g1683
S'with'
p6369
tp6370
I486863
s(S'it'
p6371
S'at'
p6372
tp6373
I5751763
s(S'never'
p6374
g2216
tp6375
I129985
s(S'bursting'
p6376
S'through'
p6377
tp6378
I40637
s(S'to'
p6379
S'include'
p6380
tp6381
I6380468
s(S'car'
p6382
g4924
tp6383
I3086
s(g2070
S'for'
p6384
tp6385
I3456
s(g2916
S'_END_'
p6386
tp6387
I496225
s(S'those'
p6388
g622
tp6389
I659
s(S'from'
p6390
g5342
tp6391
I15414249
s(g171
g4085
tp6392
I3950
s(S'the'
p6393
g3571
tp6394
I262440
s(g415
S'knife'
p6395
tp6396
I26850
s(g2472
g4836
tp6397
I47059
s(S'between'
p6398
g35
tp6399
I4943783
s(g3239
S'the'
p6400
tp6401
I39832
s(S'car'
p6402
S'hit'
p6403
tp6404
I17865
s(S'quite'
p6405
g1736
tp6406
I900755
s(g486
S'_END_'
p6407
tp6408
I64
s(g3501
g2688
tp6409
I104759320
s(S'proud'
p6410
S'of'
p6411
tp6412
I2899269
s(g2094
S'century'
p6413
tp6414
I1169972
s(S'after'
p6415
S'he'
p6416
tp6417
I4302894
s(g3354
g405
tp6418
I3735954
s(g4456
g3821
tp6419
I0
s(S'years'
p6420
g6338
tp6421
I1784696
s(S'_START_'
p6422
S'after'
p6423
tp6424
I2373831
s(g6155
S'or'
p6425
tp6426
I101888
s(g5325
S'and'
p6427
tp6428
I921350
s(g4327
g35
tp6429
I4109
s(g35
S'match'
p6430
tp6431
I1053319
s(g1235
S'been'
p6432
tp6433
I166138296
s(S'mets'
p6434
S'on'
p6435
tp6436
I64
s(g759
g889
tp6437
I0
s(g614
g284
tp6438
I84155
s(g6425
g2488
tp6439
I4983
s(S'washington'
p6440
S'and'
p6441
tp6442
I441
s(g4593
g6131
tp6443
I792227
s(S'in'
p6444
g4476
tp6445
I1685944
s(g483
S'probably'
p6446
tp6447
I12322
s(g454
g680
tp6448
I3218360
s(g6147
g4026
tp6449
I23287237
s(S'of'
p6450
S'mild'
p6451
tp6452
I305513
s(g5918
g3118
tp6453
I147475
s(g35
g2396
tp6454
I1193125
s(g1336
S'bags'
p6455
tp6456
I0
s(g4667
S'pressure'
p6457
tp6458
I343732
s(g1079
g4487
tp6459
I0
s(g2870
g5239
tp6460
I2717
s(S'little'
p6461
g1322
tp6462
I12554
s(S'waiter'
p6463
g35
tp6464
I5741
s(S'his'
p6465
S'current'
p6466
tp6467
I237069
s(g2702
S'cut'
p6468
tp6469
I186
s(g1458
g514
tp6470
I1080031
s(S'in'
p6471
g6244
tp6472
I37182
s(g3425
g1835
tp6473
I245
s(g3830
S'when'
p6474
tp6475
I103251
s(g6140
S'beat'
p6476
tp6477
I0
s(S'use'
p6478
S'to'
p6479
tp6480
I3565025
s(g4104
S'and'
p6481
tp6482
I1368
s(S'as'
p6483
g35
tp6484
I236797328
s(S'to'
p6485
S'my'
p6486
tp6487
I22475070
s(S'as'
p6488
g1935
tp6489
I16234
s(S'merely'
p6490
g2527
tp6491
I55485
s(g3748
g769
tp6492
I6069359
s(g1213
g5071
tp6493
I78466694
s(S'blade'
p6494
S'with'
p6495
tp6496
I53246
s(g6356
S'bars'
p6497
tp6498
I178
s(g2624
g1514
tp6499
I682745
s(S'blacksmith'
p6500
g2926
tp6501
I1640
s(g97
S'stretching'
p6502
tp6503
I5529
s(S'time'
p6504
g3195
tp6505
I14880813
s(S'billion'
p6506
S'tons'
p6507
tp6508
I61021
s(g3859
g6160
tp6509
I12913540
s(S'_START_'
p6510
g1929
tp6511
I456202
s(g3391
g2474
tp6512
I0
s(g5398
g3508
tp6513
I709428
s(S'was'
p6514
g5434
tp6515
I1145799
s(g6395
g6109
tp6516
I31854
s(S'then'
p6517
g1170
tp6518
I31107
s(S'universal'
p6519
g1517
tp6520
I19094
s(S'sharp'
p6521
g4235
tp6522
I10829
s(g2545
g5286
tp6523
I190205
s(S'forty'
p6524
g4404
tp6525
I7542
s(S'and'
p6526
g996
tp6527
I632495
s(g4790
g5834
tp6528
I6420
s(g1939
g4150
tp6529
I0
s(S'kramer'
p6530
S'told'
p6531
tp6532
I0
s(g3122
S'electricity'
p6533
tp6534
I3282
s(g35
g3689
tp6535
I424861
s(g4344
g5068
tp6536
I3667117
s(S'white'
p6537
g364
tp6538
I230
s(g2230
g258
tp6539
I31161
s(g2582
S'came'
p6540
tp6541
I54772
s(g2384
g1270
tp6542
I386505
s(g3713
S'of'
p6543
tp6544
I21541785
s(S'then'
p6545
S'much'
p6546
tp6547
I69488
s(S'table'
p6548
g3451
tp6549
I16554
s(g4616
g706
tp6550
I718667
s(S'him'
p6551
S'_END_'
p6552
tp6553
I92991
s(g94
g2302
tp6554
I253492
s(g3454
g2842
tp6555
I12934716
s(S'unsolved'
p6556
g3325
tp6557
I9413
s(S'forty'
p6558
S'three'
p6559
tp6560
I8061
s(g6138
S'cannot'
p6561
tp6562
I522
s(g566
g4219
tp6563
I23918
s(S'including'
p6564
g35
tp6565
I2509657
s(g3293
S'an'
p6566
tp6567
I7277126
s(g3717
g3827
tp6568
I9346050
s(g4877
g1537
tp6569
I102819
s(g1564
g741
tp6570
I616103
s(g3680
g5691
tp6571
I247716
s(g687
g5881
tp6572
I1243
s(g1431
g3208
tp6573
I0
s(g3523
S'jeremy'
p6574
tp6575
I0
s(S'of'
p6576
g5440
tp6577
I712654
s(S'annals'
p6578
S'of'
p6579
tp6580
I609165
s(g5930
g3580
tp6581
I5356
s(S'in'
p6582
S'modern'
p6583
tp6584
I2589892
s(S'have'
p6585
S'helped'
p6586
tp6587
I1056619
s(S'rope'
p6588
S'in'
p6589
tp6590
I98379
s(g1249
g636
tp6591
I18850
s(g5587
g5258
tp6592
I3491765
s(S'including'
p6593
g5781
tp6594
I310
s(g2375
S'degrees'
p6595
tp6596
I22114
s(S'the'
p6597
S'dark'
p6598
tp6599
I8503511
s(g1628
g2909
tp6600
I221
s(g6015
g35
tp6601
I1465234
s(S'an'
p6602
g3961
tp6603
I2841081
s(g1127
g2446
tp6604
I241879
s(g400
S'continuous'
p6605
tp6606
I59275
s(g5857
g5671
tp6607
I5209
s(S'can'
p6608
g3229
tp6609
I154181454
s(g276
S'an'
p6610
tp6611
I399957
s(g942
g2518
tp6612
I925540
s(g5114
S'it'
p6613
tp6614
I1688106
s(g5302
g4028
tp6615
I12862
s(g2053
g5944
tp6616
I33690
s(g6479
S'accomplish'
p6617
tp6618
I3475481
s(g5404
g35
tp6619
I2755383
s(S'and'
p6620
S'corn'
p6621
tp6622
I456377
s(S'mother'
p6623
g128
tp6624
I0
s(g5170
g1611
tp6625
I783
s(g4635
g3216
tp6626
I725
s(S'like'
p6627
S'wheat'
p6628
tp6629
I27331
s(g1757
g4981
tp6630
I10866
s(S'kiln'
p6631
S'_END_'
p6632
tp6633
I2116
s(g3323
S'him'
p6634
tp6635
I46270839
s(g4862
g5345
tp6636
I0
s(g6362
g3104
tp6637
I0
s(S'hundred'
p6638
g4970
tp6639
I415435
s(g2001
g5360
tp6640
I13911066
s(S'he'
p6641
S'want'
p6642
tp6643
I349556
s(S'order'
p6644
S'in'
p6645
tp6646
I2412577
s(g4374
g4741
tp6647
I0
s(S'three'
p6648
g2374
tp6649
I4533338
s(S'detractors'
p6650
S'as'
p6651
tp6652
I5239
s(g6533
S'imported'
p6653
tp6654
I118
s(S'matches'
p6655
g1418
tp6656
I397870
s(g1778
g2984
tp6657
I10797417
s(g4255
g6204
tp6658
I64
s(g800
S'_END_'
p6659
tp6660
I21356
s(g1861
S'variances'
p6661
tp6662
I362
s(g2510
g6485
tp6663
I11283781
s(g5117
S'with'
p6664
tp6665
I520050
s(g153
g2918
tp6666
I1912
s(S'never'
p6667
g6086
tp6668
I48277
s(g1650
S'gears'
p6669
tp6670
I8498
s(g5838
g1424
tp6671
I230
s(S'building'
p6672
g390
tp6673
I80
s(S'hair'
p6674
g1863
tp6675
I27420
s(g2782
S'twenty'
p6676
tp6677
I1198
s(S'into'
p6678
g35
tp6679
I51137372
s(S'tranberg'
p6680
S'looked'
p6681
tp6682
I0
s(g1360
g6102
tp6683
I306458
s(g4045
S'is'
p6684
tp6685
I0
s(S'by'
p6686
g6146
tp6687
I23321
s(S'was'
p6688
g5464
tp6689
I305154
s(g41
g35
tp6690
I168545
s(S'the'
p6691
S'turbine'
p6692
tp6693
I291752
s(g5540
g6585
tp6694
I28793335
s(S'to'
p6695
g3288
tp6696
I684790
s(S'spoke'
p6697
S'to'
p6698
tp6699
I2711978
s(S'roof'
p6700
g4979
tp6701
I336
s(g5061
g2238
tp6702
I276
s(S'are'
p6703
g4615
tp6704
I68857815
s(g4380
g2113
tp6705
I86055
s(g5887
S'to'
p6706
tp6707
I59609
s(g2867
g473
tp6708
I19843158
s(g5840
g5850
tp6709
I50925
s(S'pressed'
p6710
g5549
tp6711
I5788
s(S'impending'
p6712
g1947
tp6713
I113
s(g348
S'tower'
p6714
tp6715
I0
s(g3043
g6644
tp6716
I181776
s(g4297
g5307
tp6717
I17531
s(S'collapse'
p6718
S'_END_'
p6719
tp6720
I1964
s(g1603
S'_END_'
p6721
tp6722
I1485
s(S'the'
p6723
g2284
tp6724
I398370
s(g6343
S'of'
p6725
tp6726
I3018031
s(g2746
S'the'
p6727
tp6728
I1592138
s(g5407
g5566
tp6729
I23815
s(g99
g6697
tp6730
I1389
s(g6540
S'_END_'
p6731
tp6732
I18942
s(g5362
S'one'
p6733
tp6734
I227443
s(S'and'
p6735
g3232
tp6736
I325118
s(S'small'
p6737
g3126
tp6738
I1045
s(S'the'
p6739
S'operator'
p6740
tp6741
I1959410
s(S'the'
p6742
g4673
tp6743
I20450182
s(g1729
S'are'
p6744
tp6745
I334422
s(g5417
g3743
tp6746
I1216953
s(S'descending'
p6747
g5185
tp6748
I11290
s(S'to'
p6749
S'seventy'
p6750
tp6751
I240917
s(g2720
S'offices'
p6752
tp6753
I0
s(S'or'
p6754
g2623
tp6755
I52206
s(g3759
S'slowed'
p6756
tp6757
I48038
s(g4250
S'sur'
p6758
tp6759
I0
s(g35
g4134
tp6760
I1751635
s(g5107
S'he'
p6761
tp6762
I46501409
s(g5600
S'of'
p6763
tp6764
I2428741
s(g4075
S'emissions'
p6765
tp6766
I25243
s(g4272
S'centuries'
p6767
tp6768
I55610
s(S'will'
p6769
S'produce'
p6770
tp6771
I1421916
s(g35
S'very'
p6772
tp6773
I41105286
s(g2201
S'_END_'
p6774
tp6775
I23911
s(S'back'
p6776
g105
tp6777
I9630508
s(S'was'
p6778
g1810
tp6779
I3553337
s(g35
g6032
tp6780
I1455180
s(g5100
g1590
tp6781
I1768
s(g3885
g3478
tp6782
I79
s(g2381
g1433
tp6783
I61798
s(S'to'
p6784
g4792
tp6785
I85159996
s(S'magazines'
p6786
g4389
tp6787
I0
s(g3574
g5847
tp6788
I14770572
s(g3597
S'_END_'
p6789
tp6790
I2117
s(g704
g4224
tp6791
I44420108
s(g4541
S'as'
p6792
tp6793
I25279
s(g4128
g4394
tp6794
I0
s(g135
g6593
tp6795
I8474
s(S'change'
p6796
S'is'
p6797
tp6798
I1968896
s(g3414
g2067
tp6799
I0
s(g512
g4563
tp6800
I40561162
s(g1284
S'in'
p6801
tp6802
I921408
s(g3193
g4968
tp6803
I1041107
s(g2467
g2701
tp6804
I427785
s(g4518
g35
tp6805
I0
s(S'the'
p6806
S'dinner'
p6807
tp6808
I1147799
s(g4600
S'what'
p6809
tp6810
I242398
s(g339
g35
tp6811
I70903
s(S'in'
p6812
g5037
tp6813
I538560
s(g3850
S'are'
p6814
tp6815
I215703
s(S'fifty'
p6816
g1089
tp6817
I116945
s(g2765
S'five'
p6818
tp6819
I245
s(S'been'
p6820
g2460
tp6821
I231017
s(g471
S'to'
p6822
tp6823
I47166412
s(g3741
g4325
tp6824
I269654
s(g6744
g6331
tp6825
I80563
s(g3488
S'with'
p6826
tp6827
I94811
s(g5040
S'per'
p6828
tp6829
I634238
s(S'by'
p6830
g4289
tp6831
I2054591
s(S'he'
p6832
g6667
tp6833
I4699162
s(g1464
g6519
tp6834
I378
s(g5368
g499
tp6835
I0
s(S'tom'
p6836
g3540
tp6837
I77
s(S'thirty'
p6838
g1960
tp6839
I14703
s(g6084
g417
tp6840
I0
s(g4352
g6316
tp6841
I47102
s(S'particular'
p6842
g4784
tp6843
I182492
s(g99
g4482
tp6844
I21733
s(g4757
g5473
tp6845
I438
s(g5213
S'sea'
p6846
tp6847
I2885
s(g6035
g6379
tp6848
I26718
s(g1748
g6210
tp6849
I57546
s(S'make'
p6850
S'this'
p6851
tp6852
I2770457
s(g5240
g6216
tp6853
I7945
s(g6218
g6329
tp6854
I38642
s(S'aversion'
p6855
g3316
tp6856
I574079
s(g5669
S'to'
p6857
tp6858
I6369299
s(g1894
g3132
tp6859
I43081
s(g5030
g2317
tp6860
I186868
s(S'of'
p6861
g6034
tp6862
I192695176
s(S'makes'
p6863
g4634
tp6864
I786742
s(g80
S'climate'
p6865
tp6866
I0
s(S'accomplishment'
p6867
S'_END_'
p6868
tp6869
I829
s(g6561
g6171
tp6870
I0
s(g5717
g6094
tp6871
I0
s(S'cause'
p6872
g61
tp6873
I66449
s(g6725
g3804
tp6874
I31942
s(g3242
g6001
tp6875
I10783
s(S'with'
p6876
g703
tp6877
I982108
s(S'_START_'
p6878
S'at'
p6879
tp6880
I9564204
s(S'between'
p6881
g3516
tp6882
I19373
s(g5855
g5610
tp6883
I18096
s(g3876
g4839
tp6884
I405
s(S'be'
p6885
g4317
tp6886
I20105
s(g4755
g2101
tp6887
I8489
s(S'past'
p6888
g1549
tp6889
I0
s(g4222
S'fifties'
p6890
tp6891
I5632
s(g5570
g3719
tp6892
I1405
s(S'_START_'
p6893
S'over'
p6894
tp6895
I609449
s(g35
g1246
tp6896
I45541431
s(g5870
S'_END_'
p6897
tp6898
I3842
s(g3000
g2155
tp6899
I2731329
s(g3894
g3037
tp6900
I16490
s(g568
S'that'
p6901
tp6902
I725604
s(g2787
g6154
tp6903
I999757
s(S'not'
p6904
g4631
tp6905
I30779
s(g914
g4356
tp6906
I0
s(g11
g2713
tp6907
I59
s(g497
g570
tp6908
I589
s(g5865
g2981
tp6909
I0
s(g2600
g6747
tp6910
I24503
s(g5879
g5740
tp6911
I49039
s(g840
g910
tp6912
I10255118
s(g35
S'television'
p6913
tp6914
I671716
s(S'after'
p6915
g3829
tp6916
I299504
s(S'his'
p6917
S'incessant'
p6918
tp6919
I30257
s(S'toward'
p6920
g6097
tp6921
I23606180
s(g3435
g904
tp6922
I4403321
s(g5647
S'released'
p6923
tp6924
I746075
s(g4598
S'detects'
p6925
tp6926
I28944
s(S'trapped'
p6927
S'employee'
p6928
tp6929
I0
s(g44
g1652
tp6930
I1544305
s(g2507
g3197
tp6931
I688010
s(g6698
S'were'
p6932
tp6933
I101231
s(S'levels'
p6934
S'will'
p6935
tp6936
I89503
s(S'an'
p6937
g3268
tp6938
I1113751
s(S'exhilarating'
p6939
g376
tp6940
I5702
s(S'_START_'
p6941
g3347
tp6942
I949906
s(g1474
g6558
tp6943
I6195
s(g35
g344
tp6944
I731
s(g1411
g3200
tp6945
I308660
s(g4269
g729
tp6946
I8995133
s(S'to'
p6947
g6872
tp6948
I3794772
s(S'stereotype'
p6949
g818
tp6950
I254
s(g4547
g5830
tp6951
I830
s(g3356
g5372
tp6952
I1206333
s(g707
S'_END_'
p6953
tp6954
I62304
s(g1455
g35
tp6955
I26448166
s(g3021
g6068
tp6956
I88
s(g3366
g5220
tp6957
I0
s(g99
g1833
tp6958
I2522
s(g2607
g4754
tp6959
I224223
s(S'epicboy'
p6960
g2312
tp6961
I0
s(g4142
g6602
tp6962
I2942059
s(g1353
g6232
tp6963
I0
s(g6024
S'of'
p6964
tp6965
I14899281
s(g248
g4640
tp6966
I8585
s(g4509
S'there'
p6967
tp6968
I10548837
s(g5595
g5762
tp6969
I0
s(S'floor'
p6970
g3368
tp6971
I1691545
s(g3707
S'conflict'
p6972
tp6973
I189327
s(g4199
S'_END_'
p6974
tp6975
I312820
s(S'the'
p6976
g2978
tp6977
I0
s(S'more'
p6978
g3534
tp6979
I1404678
s(S'in'
p6980
S'this'
p6981
tp6982
I110747311
s(g1223
S'and'
p6983
tp6984
I57661
s(S'work'
p6985
g1841
tp6986
I82266
s(g1572
S'where'
p6987
tp6988
I1355025
s(S'the'
p6989
g4254
tp6990
I7439806
s(g4454
g35
tp6991
I60520352
s(g59
g5922
tp6992
I4056412
s(S'terminate'
p6993
S'their'
p6994
tp6995
I37779
s(g1825
g3527
tp6996
I13189
s(S'strongest'
p6997
g6250
tp6998
I2150
s(g5425
g2110
tp6999
I29686959
s(g6120
S'him'
p7000
tp7001
I1749601
s(g956
g25
tp7002
I321992
s(g1107
S'having'
p7003
tp7004
I628968
s(g6092
S'nor'
p7005
tp7006
I3469
s(S'red'
p7007
g4123
tp7008
I0
s(g6248
S'more'
p7009
tp7010
I1766357
s(g4582
g6176
tp7011
I17999875
s(g6103
g4311
tp7012
I2923056
s(S'elevator'
p7013
S'_END_'
p7014
tp7015
I2757
s(g5733
g402
tp7016
I0
s(g2966
S'serving'
p7017
tp7018
I2978
s(g5786
g6076
tp7019
I0
s(S'opened'
p7020
g35
tp7021
I1383834
s(g1839
g2048
tp7022
I6709
s(S'the'
p7023
g3165
tp7024
I12633047
s(S'few'
p7025
g2449
tp7026
I292934
s(g4124
g3045
tp7027
I0
s(g4793
g2469
tp7028
I5774412
s(g2004
g3529
tp7029
I133587
s(S'yield'
p7030
g2146
tp7031
I1110
s(g785
S'stick'
p7032
tp7033
I694
s(g5232
g2584
tp7034
I33375146
s(g426
g6980
tp7035
I344066
s(S'steel'
p7036
S'_END_'
p7037
tp7038
I45903
s(g35
g4546
tp7039
I243891
s(g3304
g5894
tp7040
I0
s(g2627
g4922
tp7041
I2289363
s(S'insisted'
p7042
S'on'
p7043
tp7044
I2101939
s(g6400
S'most'
p7045
tp7046
I103697341
s(S'_START_'
p7047
g3903
tp7048
I49737
s(g4812
g6876
tp7049
I105459
s(g1357
g1020
tp7050
I10946
s(g1512
g4854
tp7051
I31142
s(g1550
S'at'
p7052
tp7053
I934651
s(S'to'
p7054
g3779
tp7055
I1685767
s(S'slacks'
p7056
g35
tp7057
I465
s(g4000
g6524
tp7058
I99829
s(S'the'
p7059
S'lookout'
p7060
tp7061
I404678
s(g3899
S'_END_'
p7062
tp7063
I127855
s(S'the'
p7064
g1338
tp7065
I1014188
s(g35
S'household'
p7066
tp7067
I638226
s(g5990
g5056
tp7068
I1695
s(g3865
S'of'
p7069
tp7070
I412551
s(g4264
g6320
tp7071
I3773500
s(g2211
g6065
tp7072
I41318
s(g251
g799
tp7073
I0
s(g6476
S'the'
p7074
tp7075
I1005085
s(g2075
g1231
tp7076
I8442
s(S'the'
p7077
S'kattegat'
p7078
tp7079
I0
s(S'they'
p7080
g247
tp7081
I107640
s(S'he'
p7082
g267
tp7083
I25208303
s(g6003
S'next'
p7084
tp7085
I718940
s(g5305
S'_END_'
p7086
tp7087
I3392
s(S'we'
p7088
g761
tp7089
I893324
s(S'hydraulic'
p7090
g5547
tp7091
I0
s(g5795
g1969
tp7092
I764
s(S'fuels'
p7093
S'is'
p7094
tp7095
I23060
s(g5256
S'first'
p7096
tp7097
I12240404
s(g2711
S'_END_'
p7098
tp7099
I532
s(g5395
g4795
tp7100
I402
s(g2553
g1724
tp7101
I1980
s(S'knife'
p7102
g4379
tp7103
I5567
s(S'most'
p7104
g3380
tp7105
I0
s(S'the'
p7106
g4590
tp7107
I785804
s(g6851
g5277
tp7108
I72465
s(g4690
g1540
tp7109
I5890
s(S'the'
p7110
g602
tp7111
I47471
s(g3408
g6314
tp7112
I0
s(g4490
S'with'
p7113
tp7114
I1184149
s(g500
g2548
tp7115
I468
s(g4954
S'rumored'
p7116
tp7117
I1045
s(g1671
g958
tp7118
I0
s(g3080
S'inside'
p7119
tp7120
I81798
s(g5606
S'an'
p7121
tp7122
I2053945
s(g4031
g5767
tp7123
I120957
s(S'six'
p7124
g4050
tp7125
I1311975
s(g5083
S'quickly'
p7126
tp7127
I725422
s(S'and'
p7128
g7020
tp7129
I1714216
s(g35
g7090
tp7130
I137130
s(g3073
g1444
tp7131
I2290
s(S'counterweight'
p7132
g540
tp7133
I655
s(g1012
g88
tp7134
I0
s(g3095
g5933
tp7135
I83
s(g4342
g35
tp7136
I90359
s(S'online'
p7137
g5537
tp7138
I1709
s(g2346
g7110
tp7139
I119744058
s(g35
g5553
tp7140
I23511
s(g3301
g4106
tp7141
I1415950
s(S'should'
p7142
g4577
tp7143
I23819150
s(S'difference'
p7144
g6398
tp7145
I11241463
s(g4704
g5247
tp7146
I3322
s(g5644
g35
tp7147
I158126099
s(S'shoes'
p7148
g2938
tp7149
I811049
s(S'to'
p7150
g1042
tp7151
I0
s(g7005
S'were'
p7152
tp7153
I352161
s(g5777
g5811
tp7154
I1796647
s(g6306
S'feet'
p7155
tp7156
I746974
s(g672
g3225
tp7157
I868799
s(g5069
S'kramer'
p7158
tp7159
I0
s(g3626
g4834
tp7160
I32498
s(g4094
g1647
tp7161
I143020
s(g3995
g2235
tp7162
I0
s(g4699
S'was'
p7163
tp7164
I19366
s(S'the'
p7165
g5744
tp7166
I899705
s(g5928
g1574
tp7167
I0
s(g5908
g6820
tp7168
I131106131
s(S'provide'
p7169
S'the'
p7170
tp7171
I4994039
s(S'francisco'
p7172
g3766
tp7173
I0
s(g3733
g5413
tp7174
I0
s(g1439
S'from'
p7175
tp7176
I912402
s(S'elevator'
p7177
S'operator'
p7178
tp7179
I28090
s(g2948
S'like'
p7180
tp7181
I15727
s(g429
g1379
tp7182
I346800
s(g1588
g6388
tp7183
I1261991
s(S'by'
p7184
S'half'
p7185
tp7186
I434227
s(g6192
g6126
tp7187
I4438
s(g6050
S'changes'
p7188
tp7189
I1044996
s(g3687
S'in'
p7190
tp7191
I96022
s(g1009
g790
tp7192
I795570
s(g939
S'knife'
p7193
tp7194
I2457
s(g35
g4206
tp7195
I94343
s(g6071
g2477
tp7196
I2110106
s(S'on'
p7197
g359
tp7198
I6483
s(S'injured'
p7199
g6350
tp7200
I13201
s(S'most'
p7201
g5799
tp7202
I143
s(g5465
g5594
tp7203
I28705552
s(g7060
g2742
tp7204
I319007
s(S'some'
p7205
g5977
tp7206
I481
s(S'was'
p7207
g1057
tp7208
I240886
s(g354
S'_END_'
p7209
tp7210
I72863
s(S'bleszinski'
p7211
g4864
tp7212
I0
s(g6925
S'if'
p7213
tp7214
I730
s(S'although'
p7215
g3500
tp7216
I3108012
s(g5608
g4580
tp7217
I59482
s(g3146
S'_END_'
p7218
tp7219
I518
s(g2387
g146
tp7220
I67267435
s(g2904
S'on'
p7221
tp7222
I1432416
s(g3916
g35
tp7223
I17327732
s(S'on'
p7224
S'him'
p7225
tp7226
I6296429
s(g4460
g3813
tp7227
I1691723
s(g4619
g2567
tp7228
I110876
s(S'_START_'
p7229
g210
tp7230
I41099563
s(g6987
S'and'
p7231
tp7232
I654874
s(g7193
S'_END_'
p7233
tp7234
I8806
s(g4039
S'microsofts'
p7235
tp7236
I0
s(g6293
S'kramer'
p7237
tp7238
I0
s(S'red'
p7239
g764
tp7240
I0
s(g2414
g329
tp7241
I209718
s(g5032
S'an'
p7242
tp7243
I102830
s(S'and'
p7244
g2745
tp7245
I2123097
s(S'toward'
p7246
g6151
tp7247
I8096
s(g4708
g3791
tp7248
I107
s(g4549
g35
tp7249
I20046532
s(S'his'
p7250
g1106
tp7251
I3014288
s(S'steel'
p7252
g3692
tp7253
I185
s(g6814
S'already'
p7254
tp7255
I2101697
s(g4011
g4886
tp7256
I5256
s(g695
g6440
tp7257
I0
s(S'makes'
p7258
g6165
tp7259
I964992
s(g4911
g2953
tp7260
I1175487
s(S'the'
p7261
g192
tp7262
I9539109
s(g5386
g5216
tp7263
I20339146
s(g2543
S'and'
p7264
tp7265
I3388409
s(g4780
S'an'
p7266
tp7267
I5157
s(g3648
g3303
tp7268
I0
s(g7116
S'was'
p7269
tp7270
I298
s(g2126
g4903
tp7271
I221487
s(g5697
g2975
tp7272
I107254
s(g5163
S'which'
p7273
tp7274
I0
s(g5598
g4857
tp7275
I104051
s(g3371
g7124
tp7276
I460036
s(g6822
g6478
tp7277
I29254725
s(g35
g3737
tp7278
I1656970
s(g6681
g5562
tp7279
I15246143
s(g2330
g6390
tp7280
I987304
s(S'whats'
p7281
g2698
tp7282
I0
s(S'of'
p7283
g3912
tp7284
I0
s(g4624
S'what'
p7285
tp7286
I29830
s(S'severely'
p7287
g7199
tp7288
I76099
s(g5953
S'an'
p7289
tp7290
I3152
s(S'gears'
p7291
S'won'
p7292
tp7293
I0
s(S'in'
p7294
g7281
tp7295
I84
s(g3777
S'the'
p7296
tp7297
I285018
s(g5074
g2000
tp7298
I11848090
s(g4277
g233
tp7299
I11039450
s(S'knives'
p7300
S'_END_'
p7301
tp7302
I3314
s(g7158
g3079
tp7303
I0
s(g2179
g2293
tp7304
I58455
s(g1882
S'developers'
p7305
tp7306
I8681
s(g156
g6641
tp7307
I5031735
s(S'few'
p7308
g987
tp7309
I1450903
s(g6008
g2874
tp7310
I204155
s(g35
g1034
tp7311
I15588
s(g4889
g4459
tp7312
I295
s(S'difficult'
p7313
g3084
tp7314
I19242724
s(g3862
g735
tp7315
I1848498
s(g6321
g43
tp7316
I690
s(g2714
g4779
tp7317
I268
s(g3941
S'almost'
p7318
tp7319
I5476723
s(g1496
g2935
tp7320
I94436
s(g5094
g93
tp7321
I329247984
s(S'has'
p7322
g2407
tp7323
I20640656
s(g2495
S'and'
p7324
tp7325
I867293
s(S'blog'
p7326
g3400
tp7327
I1094
s(S'of'
p7328
g3732
tp7329
I96312
s(g2091
S'the'
p7330
tp7331
I188911333
s(g1115
g5557
tp7332
I54691
s(g2010
S'pacing'
p7333
tp7334
I37810
s(S'war'
p7335
g35
tp7336
I148050
s(g2812
S'button'
p7337
tp7338
I811914
s(g6208
g1060
tp7339
I221101
s(g7119
S'his'
p7340
tp7341
I461696
s(g5086
S'to'
p7342
tp7343
I788668
s(g1692
g6376
tp7344
I1691
s(g1737
g1571
tp7345
I822999
s(g99
g4935
tp7346
I2410
s(g5975
S'and'
p7347
tp7348
I420
s(S'the'
p7349
g5270
tp7350
I4066025
s(S'_START_'
p7351
g1914
tp7352
I1484173
s(S'box'
p7353
g600
tp7354
I284466
s(g1805
g1185
tp7355
I0
s(S'to'
p7356
g6221
tp7357
I1058307
s(g5336
g5388
tp7358
I0
s(g7126
g5156
tp7359
I46471
s(S'the'
p7360
g1577
tp7361
I3640809
s(g4951
g2425
tp7362
I264418759
s(S'one'
p7363
g137
tp7364
I952459
s(g5913
g5770
tp7365
I0
s(g199
g7148
tp7366
I778
s(g6432
S'certified'
p7367
tp7368
I55889
s(g6531
g5737
tp7369
I12828380
s(g5807
g90
tp7370
I128
s(S'clearly'
p7371
g6410
tp7372
I2918
s(g2426
g6881
tp7373
I32117
s(g5136
g4515
tp7374
I1320
s(g4949
g2786
tp7375
I1454495
s(g6758
g396
tp7376
I681983
s(g165
g7207
tp7377
I0
s(g6124
g1957
tp7378
I0
s(g3538
S'the'
p7379
tp7380
I86814801
s(S'september'
p7381
g4392
tp7382
I479
s(g35
S'quintessential'
p7383
tp7384
I30446
s(S'into'
p7385
S'tranbergs'
p7386
tp7387
I0
s(g35
g5144
tp7388
I2218515
s(g6056
g2186
tp7389
I97369
s(g5945
g664
tp7390
I0
s(S'the'
p7391
g4338
tp7392
I33668644
s(S'an'
p7393
g120
tp7394
I798945
s(S'also'
p7395
g6993
tp7396
I9066
s(g5872
g1182
tp7397
I152251
s(g6605
S'_END_'
p7398
tp7399
I4979
s(g35
g5078
tp7400
I836836
s(g4916
S'connecting'
p7401
tp7402
I0
s(g5178
g5191
tp7403
I4778091
s(g5658
g2399
tp7404
I97
s(S'of'
p7405
g35
tp7406
I412300382
s(g6994
g2522
tp7407
I21765
s(S'_START_'
p7408
g952
tp7409
I7573479
s(g1816
g3896
tp7410
I1007
s(g4152
g7150
tp7411
I12042775
s(S'their'
p7412
g6867
tp7413
I42623
s(g35
g4820
tp7414
I2768742
s(g6634
g6608
tp7415
I83118
s(g5138
g1529
tp7416
I70419
s(g1292
g5411
tp7417
I7663
s(g35
g7308
tp7418
I71990197
s(S'shrunk'
p7419
g7184
tp7420
I13090
s(g1058
S'one'
p7421
tp7422
I25826309
s(S'before'
p7423
S'we'
p7424
tp7425
I3461321
s(g991
g784
tp7426
I2591
s(g1210
g4115
tp7427
I467803
s(S'at'
p7428
g3946
tp7429
I151796
s(S'when'
p7430
g99
tp7431
I67305
s(g3633
S'_END_'
p7432
tp7433
I257577
s(S'they'
p7434
g2847
tp7435
I370361
s(g6318
g1633
tp7436
I71
s(S'editors'
p7437
g3097
tp7438
I91
s(g5937
g1966
tp7439
I198361
s(S'handle'
p7440
g815
tp7441
I7772
s(g118
g3588
tp7442
I2135301
s(g4448
g7381
tp7443
I941
s(g4715
g6168
tp7444
I1450287
s(g6455
g5825
tp7445
I427479
s(g4832
S'or'
p7446
tp7447
I40805
s(g3780
g1212
tp7448
I383787
s(S'the'
p7449
g1257
tp7450
I846428
s(g5828
g4762
tp7451
I10180799
s(S'about'
p7452
g3553
tp7453
I11267855
s(g7000
g4042
tp7454
I43531878
s(g1354
S'longest'
p7455
tp7456
I1572077
s(g555
S'with'
p7457
tp7458
I9474537
s(S'and'
p7459
g2677
tp7460
I228008
s(g5022
g6655
tp7461
I175241
s(g6653
S'from'
p7462
tp7463
I659008
s(g6574
g1014
tp7464
I0
s(g3058
g3286
tp7465
I123446
s(g2483
g1789
tp7466
I180065
s(S'to'
p7467
g1560
tp7468
I1710975
s(S'response'
p7469
S'_END_'
p7470
tp7471
I26371
s(g202
g5046
tp7472
I2618774
s(S'to'
p7473
S'it'
p7474
tp7475
I22482997
s(S'plummet'
p7476
S'the'
p7477
tp7478
I644
s(S'levels'
p7479
g4120
tp7480
I199729
s(S'the'
p7481
g6578
tp7482
I503331
s(g1997
g2263
tp7483
I2134
s(g5935
g1234
tp7484
I14675
s(g6486
g1926
tp7485
I2541425
s(g1229
S'passengers'
p7486
tp7487
I364120
s(g5020
g4605
tp7488
I65976
s(S'crashed'
p7489
g1714
tp7490
I190674
s(g35
g5964
tp7491
I525
s(S'of'
p7492
S'crops'
p7493
tp7494
I427039
s(S'thought'
p7495
g1759
tp7496
I0
s(g3727
g3110
tp7497
I43228443
s(S'the'
p7498
g5545
tp7499
I9144487
s(g6184
g4987
tp7500
I178667
s(S'his'
p7501
g7326
tp7502
I7006
s(g7045
g5242
tp7503
I193864
s(g623
g3694
tp7504
I35700
s(S'was'
p7505
g805
tp7506
I109215804
s(g2357
S'in'
p7507
tp7508
I480449
s(g1994
g4103
tp7509
I1067118
s(g6692
S'loomed'
p7510
tp7511
I0
s(g5300
g6769
tp7512
I10649
s(S'occasional'
p7513
g6650
tp7514
I64
s(S'to'
p7515
g3014
tp7516
I3976521
s(g4726
g5555
tp7517
I53597480
s(g35
S'seemingly'
p7518
tp7519
I382472
s(g47
g7452
tp7520
I8701050
s(S'but'
p7521
g1905
tp7522
I953354
s(S'bleszinski'
p7523
g4623
tp7524
I0
s(g4931
g881
tp7525
I9563
s(g4801
S'and'
p7526
tp7527
I70445
s(g6105
g6631
tp7528
I1876
s(g181
g6778
tp7529
I39050131
s(S'taunt'
p7530
S'_END_'
p7531
tp7532
I217
s(g5244
S'to'
p7533
tp7534
I29001
s(g5161
g7197
tp7535
I5781835
s(S'the'
p7536
S'parking'
p7537
tp7538
I1098825
s(S'other'
p7539
S'_END_'
p7540
tp7541
I98537
s(g4169
g5988
tp7542
I6230
s(S'he'
p7543
g6863
tp7544
I1737540
s(g1317
g5200
tp7545
I338459
s(g953
g2811
tp7546
I828135
s(g35
S'boyish'
p7547
tp7548
I73974
s(S'the'
p7549
g5510
tp7550
I16882970
s(g6195
g1260
tp7551
I51988
s(g5817
g1103
tp7552
I32528
s(g259
g34
tp7553
I771
s(g4964
g1002
tp7554
I3406958
s(g1616
g6500
tp7555
I0
s(S'of'
p7556
g7335
tp7557
I10225451
s(g6136
g2194
tp7558
I1402758
s(g4956
g4909
tp7559
I3004088
s(S'which'
p7560
g5380
tp7561
I466480
s(S'and'
p7562
g863
tp7563
I2522705
s(g35
g1415
tp7564
I3062673
s(g974
S'of'
p7565
tp7566
I1342307
s(g3955
g3405
tp7567
I2102237
s(S'_START_'
p7568
S'beneath'
p7569
tp7570
I94357
s(g6380
g4995
tp7571
I626848
s(S'_START_'
p7572
g1344
tp7573
I615
s(g4186
g7054
tp7574
I86846
s(g35
g2561
tp7575
I438
s(g35
g2339
tp7576
I7825952
s(g6163
g4271
tp7577
I0
s(g7367
S'in'
p7578
tp7579
I54982
s(g6610
g3645
tp7580
I345453
s(g4711
g5639
tp7581
I3340
s(g4651
S'that'
p7582
tp7583
I68478
s(g184
g6052
tp7584
I26265079
s(g899
g3799
tp7585
I39203
s(S'says'
p7586
g3185
tp7587
I0
s(g3311
g35
tp7588
I1314585
s(g4796
g2820
tp7589
I1717956
s(g5430
g7246
tp7590
I37742
s(g5334
g7328
tp7591
I6227474
s(S'_START_'
p7592
g7104
tp7593
I1289201
s(S'steel'
p7594
g3162
tp7595
I102768
s(S'wars'
p7596
S'signature'
p7597
tp7598
I0
s(g4089
g3906
tp7599
I31503753
s(S'knives'
p7600
g5574
tp7601
I31782
s(g5228
g6530
tp7602
I0
s(g7318
g186
tp7603
I317
s(g6913
g5508
tp7604
I192675
s(g4091
g4093
tp7605
I0
s(g6579
g5897
tp7606
I29526
s(g2073
g6674
tp7607
I588163
s(g5771
S'_END_'
p7608
tp7609
I2084
s(g1978
g149
tp7610
I17198062
s(g2481
g4354
tp7611
I2679
s(g4688
g164
tp7612
I338251
s(g6413
g6836
tp7613
I0
s(S'the'
p7614
g3365
tp7615
I16366
s(g1740
g96
tp7616
I811270
s(g5970
g7489
tp7617
I120360
s(g7510
g2162
tp7618
I82373
s(S'_START_'
p7619
g631
tp7620
I257
s(g35
g3427
tp7621
I959888
s(g35
g6521
tp7622
I3204324
s(S'xbox'
p7623
g3596
tp7624
I0
s(g6044
g7102
tp7625
I7399
s(S'_START_'
p7626
g5004
tp7627
I2018357
s(g3822
g379
tp7628
I1517161
s(g3321
g2769
tp7629
I30727
s(g1043
g6960
tp7630
I0
s(g2172
g152
tp7631
I0
s(g7379
g111
tp7632
I12919793
s(g6770
g528
tp7633
I352299
s(g5764
g6005
tp7634
I41049
s(g1159
g7258
tp7635
I0
s(g7292
g1405
tp7636
I1595
s(S'sits'
p7637
g7294
tp7638
I468477
s(g35
g2736
tp7639
I3407289
s(g1188
g5146
tp7640
I1062
s(g7289
g6855
tp7641
I143207
s(g6621
g5500
tp7642
I27036
s(g6972
g5747
tp7643
I1241
s(g1217
g4538
tp7644
I26934
s(g7254
S'apparent'
p7645
tp7646
I54360
s(g7003
g35
tp7647
I9212594
s(g6113
g35
tp7648
I1676787
s(g3345
g1673
tp7649
I2221017
s(g4516
S'_END_'
p7650
tp7651
I0
s(g629
g1215
tp7652
I120
s(S'tall'
p7653
g2455
tp7654
I86
s(g6369
g35
tp7655
I196230784
s(g945
g7313
tp7656
I1199746
s(g3869
g2900
tp7657
I0
s(g2475
g5477
tp7658
I797632
s(g6241
S'was'
p7659
tp7660
I116443
s(g6158
g4399
tp7661
I2646571
s(g2520
S'_END_'
p7662
tp7663
I382
s(g5950
S'_END_'
p7664
tp7665
I2903
s(g6752
g5625
tp7666
I217058
s(g7446
S'idealistic'
p7667
tp7668
I11262
s(g2541
g5319
tp7669
I47643
s(g5076
g1667
tp7670
I41729221
s(g5978
S'when'
p7671
tp7672
I14011
s(g5564
g5687
tp7673
I6611081
s(g6756
g6749
tp7674
I139442
s(g5822
g2729
tp7675
I17999671
s(g99
g1161
tp7676
I49189
s(g4397
S'and'
p7677
tp7678
I61105
s(S'him'
p7679
g5628
tp7680
I10455005
s(S'the'
p7681
g5755
tp7682
I535351
s(g3040
g7637
tp7683
I0
s(g1591
S'in'
p7684
tp7685
I299915
s(S'up'
p7686
g2965
tp7687
I46294
s(S'of'
p7688
g4044
tp7689
I107315
s(g6918
g3599
tp7690
I166
s(S'_START_'
p7691
g5134
tp7692
I0
s(g2117
g5773
tp7693
I6926
s(g5049
g5665
tp7694
I4604
s(S'today'
p7695
S'one'
p7696
tp7697
I48374
s(g310
g6888
tp7698
I228938
s(g1970
g4111
tp7699
I3472204
s(S'visitors'
p7700
g7515
tp7701
I620485
s(S'_START_'
p7702
g4411
tp7703
I58509
s(g7383
g1868
tp7704
I0
s(g4558
g4004
tp7705
I848975
s(g5365
S'in'
p7706
tp7707
I1566
s(g4086
S'in'
p7708
tp7709
I25299
s(g1945
g2757
tp7710
I5204
s(g4395
g4147
tp7711
I0
s(g727
g7
tp7712
I767032
s(g68
g35
tp7713
I1038
s(S'little'
p7714
g6030
tp7715
I1623834
s(g23
g1479
tp7716
I7333
s(S'an'
p7717
g1126
tp7718
I197054
s(g4451
g6450
tp7719
I757241
s(g293
g661
tp7720
I3402
s(g2930
g7030
tp7721
I47139
s(g933
g3178
tp7722
I0
s(g6446
S'in'
p7723
tp7724
I916632
s(S'in'
p7725
g6262
tp7726
I544903
s(S'_START_'
p7727
S'above'
p7728
tp7729
I714380
s(g2610
g5526
tp7730
I207
s(g606
g2370
tp7731
I1631412
s(g4335
g6970
tp7732
I23934
s(S'upbeat'
p7733
g7459
tp7734
I21740
s(g855
g5632
tp7735
I142
s(S'moved'
p7736
g3647
tp7737
I6374453
s(S'is'
p7738
g7733
tp7739
I3940
s(g538
S'of'
p7740
tp7741
I2221674
s(g6100
g3635
tp7742
I0
s(g4982
g6735
tp7743
I430721
s(g35
g4252
tp7744
I864179
s(g1906
g4851
tp7745
I1423152
s(g262
S'grade'
p7746
tp7747
I249
s(g4788
g5289
tp7748
I78943
s(g884
g3434
tp7749
I1198
s(S'and'
p7750
g7252
tp7751
I1053972
s(S'stressed'
p7752
g6010
tp7753
I51296
s(S'allowed'
p7754
g7700
tp7755
I5103
s(S'heat'
p7756
g5121
tp7757
I35165
s(g7746
S'of'
p7758
tp7759
I860168
s(g1297
g2157
tp7760
I109530
s(g6598
g443
tp7761
I2154230
s(g4008
g4429
tp7762
I780290
s(S'neatly'
p7763
S'pressed'
p7764
tp7765
I14525
s(g748
S'of'
p7766
tp7767
I10066691
s(g4078
g7239
tp7768
I987
s(g5469
g3020
tp7769
I8383872
s(g8
g4365
tp7770
I74587
s(S'he'
p7771
g7586
tp7772
I8816746
s(g1197
S'who'
p7773
tp7774
I232275
s(g2408
g2805
tp7775
I16316
s(g5925
g7169
tp7776
I18332435
s(g35
g7530
tp7777
I25760
s(S'since'
p7778
g4221
tp7779
I22418035
s(g4136
S'the'
p7780
tp7781
I11698292
s(S'and'
p7782
g7513
tp7783
I465830
s(g7645
S'_END_'
p7784
tp7785
I3108
s(S'or'
p7786
S'squeeze'
p7787
tp7788
I15372
s(g3506
g4426
tp7789
I857094
s(g5132
g6504
tp7790
I224638
s(g6809
S'might'
p7791
tp7792
I2173777
s(S'the'
p7793
g4748
tp7794
I3725553
s(g5973
S'_END_'
p7795
tp7796
I0
s(g5453
g6718
tp7797
I5387
s(S'in'
p7798
g4415
tp7799
I1852335
s(S'only'
p7800
g67
tp7801
I817412
s(g3198
S'on'
p7802
tp7803
I66019
s(S'to'
p7804
g4800
tp7805
I2807838
s(S'just'
p7806
g3440
tp7807
I51027
s(S'been'
p7808
g4866
tp7809
I905979
s(g518
g4725
tp7810
I7865
s(g5874
S'nintendo'
p7811
tp7812
I0
s(g2629
S'of'
p7813
tp7814
I360121
s(g5615
g7750
tp7815
I26037
s(S'richtigs'
p7816
g3919
tp7817
I0
s(g7074
g6434
tp7818
I298
s(g3926
g6564
tp7819
I841
s(S'for'
p7820
S'which'
p7821
tp7822
I16191956
s(g4728
g4434
tp7823
I9845653
s(S'and'
p7824
g6997
tp7825
I121289
s(S'that'
p7826
g4658
tp7827
I178179
s(g1023
S'bleszinski'
p7828
tp7829
I0
s(g474
g6405
tp7830
I7929863
s(g1976
g309
tp7831
I6496
s(g7337
g2915
tp7832
I9923
s(S'range'
p7833
g3559
tp7834
I176382
s(g222
g6927
tp7835
I0
s(g3236
S'of'
p7836
tp7837
I4335821
s(g6546
g6978
tp7838
I17584515
s(g5533
g3901
tp7839
I332
s(S'had'
p7840
g35
tp7841
I51660930
s(g5720
g2739
tp7842
I5829396
s(S'matched'
p7843
g5654
tp7844
I275581
s(S'blink'
p7845
S'so'
p7846
tp7847
I613
s(S'_START_'
p7848
g1267
tp7849
I7928119
s(S'around'
p7850
S'the'
p7851
tp7852
I26444292
s(g6583
S'factories'
p7853
tp7854
I12590
s(S'bronze'
p7855
g428
tp7856
I1023
s(g6828
g4722
tp7857
I30199990
s(g1885
S'and'
p7858
tp7859
I5689101
s(g6115
g7855
tp7860
I0
s(g4402
S'in'
p7861
tp7862
I692791
s(S'salt'
p7863
S'_END_'
p7864
tp7865
I74662
s(g6890
g3987
tp7866
I4234
s(g2333
S'_END_'
p7867
tp7868
I0
s(g3856
g7144
tp7869
I10889735
s(S'middle'
p7870
g465
tp7871
I10961362
s(g852
g7224
tp7872
I556992
s(S'of'
p7873
g79
tp7874
I3303969
s(g7237
g7736
tp7875
I0
s(g35
g4260
tp7876
I4925
s(g3581
g1777
tp7877
I4055
s(g3738
g5731
tp7878
I25097
s(g3698
g1173
tp7879
I21210276
s(g193
S'safety'
p7880
tp7881
I736
s(g3214
g5106
tp7882
I688163
s(g4258
S'_END_'
p7883
tp7884
I40038
s(g7493
g6627
tp7885
I24838
s(g5498
g3363
tp7886
I100004
s(g3334
g5673
tp7887
I587686
s(S'jolt'
p7888
S'_END_'
p7889
tp7890
I133
s(g7066
S'tool'
p7891
tp7892
I735
s(g7266
g2855
tp7893
I150451
s(S'his'
p7894
g6623
tp7895
I10153190
s(g1915
g5902
tp7896
I65102590
s(S'where'
p7897
g3498
tp7898
I13732599
s(g1070
S'that'
p7899
tp7900
I10437871
s(g1061
S'is'
p7901
tp7902
I1727330
s(g1351
g7476
tp7903
I19665
s(g5273
g7300
tp7904
I1550
s(g927
g6311
tp7905
I26853
s(g5295
g7395
tp7906
I10106480
s(g5568
g35
tp7907
I3350
s(g7078
g6937
tp7908
I0
s(g1866
g7863
tp7909
I20391
s(g6651
g2662
tp7910
I0
s(S'despite'
p7911
g4007
tp7912
I4892443
s(g5467
g7215
tp7913
I329
s(g7853
S'_END_'
p7914
tp7915
I4364
s(g5940
g4860
tp7916
I186069
s(g35
g3148
tp7917
I6608
s(g4646
g7806
tp7918
I6839705
s(g4717
S'_END_'
p7919
tp7920
I211882
s(S'via'
p7921
S'cable'
p7922
tp7923
I9336
s(g4175
g5783
tp7924
I348
s(g3584
S'the'
p7925
tp7926
I433346077
s(S'was'
p7927
g326
tp7928
I2462882
s(S'metre'
p7929
g321
tp7930
I0
s(g1156
g7353
tp7931
I1862
s(g3959
g5677
tp7932
I8690
s(g2792
S'_END_'
p7933
tp7934
I2340
s(g7235
g7623
tp7935
I0
s(S'has'
p7936
g2578
tp7937
I122269
s(g4181
S'had'
p7938
tp7939
I163586
s(g5487
S'_END_'
p7940
tp7941
I9735
s(g1422
g3816
tp7942
I11412507
s(g35
g7888
tp7943
I120918
s(g3710
g976
tp7944
I61610
s(g35
g4883
tp7945
I57167
s(g236
g6638
tp7946
I5309063
s(g1000
g3222
tp7947
I229175
s(g3947
g2912
tp7948
I659362
s(g3281
g6415
tp7949
I159713
s(g7773
g3017
tp7950
I874212
s(S'ago'
p7951
g7754
tp7952
I640
s(g480
g7843
tp7953
I0
s(g5630
S'areas'
p7954
tp7955
I407551
s(g3245
g7469
tp7956
I485566
s(S'connected'
p7957
g1876
tp7958
I3557100
s(g1281
g7428
tp7959
I7744184
s(g1677
g414
tp7960
I1533
s(g35
g2994
tp7961
I31048
s(S'blade'
p7962
g3265
tp7963
I39647
s(g35
g6060
tp7964
I34735029
s(g6586
S'ease'
p7965
tp7966
I14646
s(g2901
g347
tp7967
I193578
s(g5268
g2174
tp7968
I0
s(g35
g5275
tp7969
I79977
s(g7043
g2537
tp7970
I20670805
s(g667
g6556
tp7971
I0
s(g35
g3124
tp7972
I1392336
s(g7178
S'_END_'
p7973
tp7974
I14894
s(g5779
S'of'
p7975
tp7976
I495505
s(g1436
g3057
tp7977
I0
s(g684
g35
tp7978
I227209066
s(g558
S'_END_'
p7979
tp7980
I16737
s(S'the'
p7981
g3628
tp7982
I557298
s(g4777
g7929
tp7983
I169
s(g452
g6939
tp7984
I29146
s(g6457
S'as'
p7985
tp7986
I190930
s(g7009
g6272
tp7987
I84708247
s(g5521
g6230
tp7988
I5818
s(g4474
g6226
tp7989
I6074419
s(g7901
g2320
tp7990
I27223
s(g782
g6838
tp7991
I0
s(g2809
g3459
tp7992
I903
s(S'oscillations'
p7993
S'in'
p7994
tp7995
I110860
s(S'j'
p7996
S'_END_'
p7997
tp7998
I204169
s(g7740
g3875
tp7999
I1960356
s(g35
g1265
tp8000
I7653186
s(g6797
g7695
tp8001
I804555
s(g6430
S'so'
p8002
tp8003
I6762
s(g457
g6371
tp8004
I4024102
s(g3007
g3310
tp8005
I907
s(g5575
g5722
tp8006
I64013
s(g3444
g5821
tp8007
I2118692
s(g6932
g7371
tp8008
I525148
s(g196
g7921
tp8009
I1186
s(g4696
g3545
tp8010
I6253
s(g7486
g6754
tp8011
I49104
s(g4369
g1599
tp8012
I675669
s(g6559
g2064
tp8013
I192576
s(g4768
g7798
tp8014
I343383
s(g7401
g5886
tp8015
I813960
s(g4097
g3864
tp8016
I87449
s(g5543
S'of'
p8017
tp8018
I161895
s(g7225
S'by'
p8019
tp8020
I5288181
s(g4798
g1691
tp8021
I786658
s(g3695
g1367
tp8022
I116500
s(g5892
S'line'
p8023
tp8024
I3902
s(S'ordered'
p8025
S'one'
p8026
tp8027
I60314
s(g3881
S'start'
p8028
tp8029
I404
s(S'he'
p8030
g2377
tp8031
I3426250
s(g7017
g6483
tp8032
I1542713
s(g5312
g4382
tp8033
I95533
s(g3077
g2323
tp8034
I126117
s(S'narrow'
p8035
g5438
tp8036
I231983
s(S'to'
p8037
g4824
tp8038
I1507056
s(S'werent'
p8039
g1132
tp8040
I233
s(g4507
g4766
tp8041
I380220
s(g3617
g5160
tp8042
I190917
s(g2882
g6099
tp8043
I129219
s(S'united'
p8044
g4586
tp8045
I9122
s(S'to'
p8046
g4154
tp8047
I23610659
s(g1353
g6285
tp8048
I10104
s(g7455
g4144
tp8049
I0
s(g7185
g7778
tp8050
I25320
s(g5923
S'is'
p8051
tp8052
I177146
s(g988
g7244
tp8053
I2538626
s(g4659
S'_END_'
p8054
tp8055
I111841
s(g5415
S'for'
p8056
tp8057
I723632
s(g7096
g3556
tp8058
I61
s(g3259
g4529
tp8059
I129999
s(g7386
S'car'
p8060
tp8061
I0
s(S'has'
p8062
g2326
tp8063
I1021
s(g1648
g964
tp8064
I0
s(g7547
g3031
tp8065
I0
s(g6772
g7752
tp8066
I4465
s(g1486
g7681
tp8067
I406018
s(g1720
g7042
tp8068
I171840
s(g3594
g3977
tp8069
I28893
s(g7667
S'_END_'
p8070
tp8071
I175
s(g313
g6947
tp8072
I56946300
s(g357
g3256
tp8073
I3202021
s(g1099
g5165
tp8074
I335482
s(g921
g3852
tp8075
I55146458
s(S'is'
p8076
g102
tp8077
I14808111
s(g809
g1857
tp8078
I2052313
s(g5592
g1685
tp8079
I185147
s(S'floor'
p8080
g7356
tp8081
I529522
s(g4349
g7492
tp8082
I315139
s(g7802
g353
tp8083
I38425
s(g5221
g4881
tp8084
I0
s(S'the'
p8085
g3729
tp8086
I4296472
s(g6740
S'of'
p8087
tp8088
I278652
s(g797
g4870
tp8089
I1078
s(g6807
g6548
tp8090
I319281
s(g2595
S'of'
p8091
tp8092
I855472
s(g124
g5124
tp8093
I63
s(g2049
g2290
tp8094
I210
s(S'was'
p8095
g3949
tp8096
I138461
s(g6714
g1313
tp8097
I1516
s(g7518
g4470
tp8098
I8684
s(g3226
g7996
tp8099
I0
s(g5035
g1614
tp8100
I14727149
s(S'feet'
p8101
g7653
tp8102
I535013
s(S'the'
p8103
g7437
tp8104
I876413
s(g2432
g7419
tp8105
I57908
s(g4573
S'in'
p8106
tp8107
I25943919
s(g6669
g7556
tp8108
I32777
s(g5210
g5234
tp8109
I18667
s(S'_START_'
p8110
g6465
tp8111
I9583763
s(g7285
g253
tp8112
I17901
s(g290
S'to'
p8113
tp8114
I18173700
s(S'manila'
p8115
g6588
tp8116
I7917
s(S'the'
p8117
g161
tp8118
I154840
s(g7069
g3849
tp8119
I492258
s(S'old'
p8120
g3313
tp8121
I166003
s(g4973
g5806
tp8122
I45433
s(g1164
S'employee'
p8123
tp8124
I0
s(g6818
g3774
tp8125
I1097071
s(S'time'
p8126
S'_END_'
p8127
tp8128
I180930
s(g1569
g3861
tp8129
I71644
s(g285
S'while'
p8130
tp8131
I486
s(g8019
g7205
tp8132
I8648380
s(g6253
g5859
tp8133
I18845
s(S'be'
p8134
g2428
tp8135
I736354
s(g5017
g7816
tp8136
I0
s(g7188
g6471
tp8137
I16656486
s(g1141
S'four'
p8138
tp8139
I261454
s(S'they'
p8140
g4465
tp8141
I24198
s(g2649
g35
tp8142
I17259535
s(S'he'
p8143
g7322
tp8144
I29703521
s(g3284
g4321
tp8145
I3996
s(g2275
g2760
tp8146
I43483367
s(g4005
g7804
tp8147
I4593893
s(g2694
g7686
tp8148
I455078
s(g99
S'wanted'
p8149
tp8150
I9012
s(g35
g6463
tp8151
I212157
s(g35
g2932
tp8152
I20219631
s(g2666
g7172
tp8153
I7383
s(g1527
S'_END_'
p8154
tp8155
I25198
s(g2565
g2643
tp8156
I33897
s(g1419
g2389
tp8157
I0
s(g6613
S'but'
p8158
tp8159
I1246497
s(g6661
g1294
tp8160
I7780
s(g7242
g6712
tp8161
I162951
s(S'cent'
p8162
S'_END_'
p8163
tp8164
I63457
s(g7213
S'the'
p8165
tp8166
I55554837
s(S'_START_'
p8167
S'there'
p8168
tp8169
I7923955
s(g577
g5819
tp8170
I7007
s(g6981
g2959
tp8171
I874595
s(g1144
g356
tp8172
I18630946
s(g2840
g5039
tp8173
I9764
s(g5604
S'that'
p8174
tp8175
I485302
s(g4412
g3026
tp8176
I8094851
s(S'the'
p8177
g411
tp8178
I260730
s(g3873
g7600
tp8179
I0
s(S'has'
p8180
g4809
tp8181
I1986063
s(S'right'
p8182
g6776
tp8183
I663685
s(S'the'
p8184
g3758
tp8185
I1667537
s(g35
g3840
tp8186
I43167
s(S'were'
p8187
g833
tp8188
I59939
s(g7965
g3709
tp8189
I581119
s(g35
g1807
tp8190
I13984308
s(g5091
g35
tp8191
I394238
s(g4483
g5001
tp8192
I661
s(g374
g7820
tp8193
I708208
s(S'he'
p8194
g4775
tp8195
I4164487
s(g4680
g3398
tp8196
I64778
s(S'_START_'
p8197
g5663
tp8198
I35663134
s(g35
g4874
tp8199
I218460
s(g7880
g4047
tp8200
I7213
s(g7975
g2165
tp8201
I240281
s(S'and'
p8202
g4849
tp8203
I655446
s(g7175
S'the'
p8204
tp8205
I376070257
s(g3730
g4661
tp8206
I0
s(g5895
g1750
tp8207
I11664938
s(g7811
g5383
tp8208
I0
s(g6468
g7786
tp8209
I246479
s(g6360
g7824
tp8210
I220954
s(g2992
g117
tp8211
I13262451
s(g5513
g6107
tp8212
I1932636
s(g3051
g2022
tp8213
I0
s(g3102
g6582
tp8214
I11416474
s(g3289
S'_END_'
p8215
tp8216
I49906
s(S'the'
p8217
g7845
tp8218
I83347
s(g6923
S'into'
p8219
tp8220
I225833
s(g35
g7594
tp8221
I735264
s(g4785
S'gauge'
p8222
tp8223
I240799
s(g6481
g3374
tp8224
I36238200
s(g1504
g671
tp8225
I484033
s(S'the'
p8226
g3937
tp8227
I2199148
s(g3808
g6420
tp8228
I4446657
s(g5572
g6506
tp8229
I32720
s(g3756
g4109
tp8230
I47678
s(g4140
g7287
tp8231
I360953
s(S'we'
p8232
S'got'
p8233
tp8234
I2887522
s(g3136
g7763
tp8235
I271
s(S'fall'
p8236
g4948
tp8237
I102
s(g5330
g5048
tp8238
I406
s(S'wearing'
p8239
g5231
tp8240
I21199
s(g7305
g3772
tp8241
I136
s(g3782
g6648
tp8242
I9914101
s(g6372
g7560
tp8243
I10210484
s(g5844
g8035
tp8244
I2909457
s(g7032
g6576
tp8245
I274015
s(g1930
g5080
tp8246
I1264
s(g3636
g6013
tp8247
I84066
s(g8023
S'of'
p8248
tp8249
I13403059
s(g4107
g1812
tp8250
I859813
s(S'blade'
p8251
g5942
tp8252
I173192
s(g6928
S'_END_'
p8253
tp8254
I8312
s(g4118
g6194
tp8255
I4329333
s(g6502
g6920
tp8256
I10320
s(g2817
g7679
tp8257
I4778
s(g6441
g8025
tp8258
I1381920
s(g4662
g4732
tp8259
I14206
s(g3656
g2045
tp8260
I5945
s(g6189
g6842
tp8261
I3225962
s(g1030
g5660
tp8262
I0
s(g6765
g2280
tp8263
I856
s(S'the'
p8264
g2945
tp8265
I734570
s(g8168
g3922
tp8266
I98283346
s(S'be'
p8267
g8182
tp8268
I1771182
s(g5758
g7833
tp8269
I299356
s(g7333
g7850
tp8270
I18137
s(g3491
S'of'
p8271
tp8272
I7473430
s(g7787
S'_END_'
p8273
tp8274
I779
s(S'now'
p8275
g1731
tp8276
I24143
s(g132
S'the'
p8277
tp8278
I117939
s(g6543
g462
tp8279
I54213234
s(g3690
g8267
tp8280
I1387
s(g7170
g446
tp8281
I1853
s(g3089
g7840
tp8282
I27860
s(g2036
g4930
tp8283
I1830
s(g5462
g5868
tp8284
I218267
s(g7569
g35
tp8285
I745870
s(g3770
g7440
tp8286
I44240
s(g245
g35
tp8287
I11167815
s(S'_START_'
p8288
g5577
tp8289
I20189297
s(g1703
g4958
tp8290
I34643
s(g7899
g7250
tp8291
I20655029
s(S'be'
p8292
g1596
tp8293
I166811
s(S'was'
p8294
g6490
tp8295
I1355626
s(g3015
g7137
tp8296
I1766
s(g5768
g8101
tp8297
I665294
s(g1389
g7826
tp8298
I5989803
s(g5915
g4876
tp8299
I14797
s(g4283
S'exchanged'
p8300
tp8301
I0
s(g35
g6461
tp8302
I52206080
s(g1371
g7993
tp8303
I0
s(g362
g7562
tp8304
I7929712
s(S'of'
p8305
g7596
tp8306
I270141
s(g7597
g5493
tp8307
I69
s(g5679
g1382
tp8308
I156238
s(S'bleszinski'
p8309
g4670
tp8310
I0
s(g6967
g3244
tp8311
I58533879
s(g6351
S'_END_'
p8312
tp8313
I5669
s(S'hundred'
p8314
g2877
tp8315
I2313763
s(g8222
g2259
tp8316
I18382
s(g3314
g2372
tp8317
I407798
s(S'the'
p8318
g7870
tp8319
I19630213
s(g2300
g1902
tp8320
I144633
s(S'this'
p8321
g6949
tp8322
I22562
s(g2059
S'because'
p8323
tp8324
I4401220
s(g4227
g3471
tp8325
I70307
s(g7084
g7473
tp8326
I8564711
s(g1082
g7782
tp8327
I166156
s(g4723
g5750
tp8328
I266518
s(g866
g2305
tp8329
I27511734
s(g7764
g7056
tp8330
I1789
s(g3867
S'to'
p8331
tp8332
I12065197
s(g5378
g4417
tp8333
I1504
s(g5428
S'_END_'
p8334
tp8335
I35697
s(g1515
g7142
tp8336
I9057118
s(g2585
g6089
tp8337
I8711160
s(g1493
g666
tp8338
I323617
s(g5283
S'_END_'
p8339
tp8340
I64
s(g8051
g7957
tp8341
I1938327
s(g6403
S'_END_'
p8342
tp8343
I5315
s(S'me'
p8344
g4359
tp8345
I136113
s(S'the'
p8346
S'business'
p8347
tp8348
I10688037
s(g2205
S'in'
p8349
tp8350
I10017197
s(g8331
g2210
tp8351
I31317896
s(g7954
g7897
tp8352
I1316708
s(g4685
g5980
tp8353
I0
s(g1450
S'_END_'
p8354
tp8355
I6366
s(g8248
g1243
tp8356
I71698
s(g4845
g2748
tp8357
I7346309
s(g5626
g7449
tp8358
I555788309
s(S'of'
p8359
g8115
tp8360
I11981
s(g6684
g3682
tp8361
I48542
s(g6058
g3602
tp8362
I8591451
s(g8113
g1503
tp8363
I256040
s(g2501
S'in'
p8364
tp8365
I12405421
s(g1597
g6934
tp8366
I46523
s(g7891
S'_END_'
p8367
tp8368
I14685
s(g99
g6514
tp8369
I143627
s(g6617
g425
tp8370
I2376
s(g1314
g4739
tp8371
I0
s(g6451
g6201
tp8372
I0
s(g4720
S'remains'
p8373
tp8374
I7721
s(g8300
g4177
tp8375
I697
s(g7922
g1762
tp8376
I281
s(g6767
g2609
tp8377
I1040120
s(g6466
g4592
tp8378
I0
s(g1732
g35
tp8379
I140561415
s(g5218
g35
tp8380
I52871
s(S'five'
p8381
S'_END_'
p8382
tp8383
I19574
s(g176
g189
tp8384
I232670
s(g8028
g35
tp8385
I1231409
s(g1121
g2570
tp8386
I3039
s(S'island'
p8387
g4999
tp8388
I330036
s(g3070
g6021
tp8389
I543104
s(g7791
g1520
tp8390
I39160824
s(g6411
g7412
tp8391
I101928367
s(g6894
S'the'
p8392
tp8393
I73995783
s(g6497
g1830
tp8394
I495012
s(S'the'
p8395
g3412
tp8396
I113412151
s.