(dp0
S'limited'
p1
I30558709
sS'todays'
p2
I45356
sS'womans'
p3
I23538
sS'powders'
p4
I714194
sS'four'
p5
I89956599
sS'hanging'
p6
I6492566
sS'oldest'
p7
I5075771
sS'increase'
p8
I45587947
sS'electricity'
p9
I4740823
sS'lore'
p10
I1327002
sS'ontological'
p11
I843915
sS'onstage'
p12
I381994
sS'worth'
p13
I22751330
sS'co2'
p14
I51785
sS'rise'
p15
I25811498
sS'smack'
p16
I485180
sS'every'
p17
I136540630
sS'founded'
p18
I11353268
sS'school'
p19
I84469404
sS'baking'
p20
I2546141
sS'crops'
p21
I6212554
sS'samurai'
p22
I402230
sS'announced'
p23
I9720858
sS'disclose'
p24
I1887791
sS'estimates'
p25
I7514367
sS'horn'
p26
I3611946
sS'chef'
p27
I864810
sS'surrounding'
p28
I9232521
sS'cary'
p29
I14174
sS'huffing'
p30
I60485
sS'7th'
p31
I3327432
sS'estimated'
p32
I12052602
sS'even'
p33
I214862216
sS'dangled'
p34
I324980
sS'microsofts'
p35
I0
sS'organisms'
p36
I5647561
sS'lights'
p37
I8886332
sS'above'
p38
I87770567
sS'new'
p39
I206403746
sS'ever'
p40
I83735694
sS'told'
p41
I76166885
sS'pumpkin'
p42
I525994
sS'never'
p43
I145906987
sS'atoms'
p44
I6359096
sS'strewn'
p45
I928897
sS'buckled'
p46
I343137
sS'alchemist'
p47
I146055
sS'study'
p48
I72619464
sS'smoke'
p49
I9550642
sS'stressed'
p50
I3579497
sS'changes'
p51
I50296663
sS'explained'
p52
I19087777
sS'county'
p53
I16278675
sS'ninety'
p54
I3523571
sS'jackets'
p55
I852269
sS'counts'
p56
I3724025
sS'spoke'
p57
I21130436
sS'would'
p58
I552605104
sS'blacksmiths'
p59
I178288
sS'call'
p60
I54855827
sS'calm'
p61
I8118468
sS'twirled'
p62
I191401
sS'tell'
p63
I63693788
sS'relax'
p64
I2555184
sS'43'
p65
I17874664
sS'wars'
p66
I6328422
sS'award'
p67
I3822034
sS'phone'
p68
I12814334
sS'adamant'
p69
I489747
sS'companys'
p70
I7023
sS'me'
p71
I380317003
sS'1990'
p72
I20320499
sS'room'
p73
I76964590
sS'1997'
p74
I15582945
sS'1999'
p75
I14222505
sS'work'
p76
I213184847
sS'plunged'
p77
I2085025
sS'roof'
p78
I9078609
sS'cliffycam'
p79
I0
sS'temperatures'
p80
I7178096
sS'brake'
p81
I1686721
sS'plunges'
p82
I297765
sS'my'
p83
I432887674
sS'could'
p84
I340540724
sS'sensually'
p85
I44114
sS'give'
p86
I101893671
sS'household'
p87
I10420268
sS'organized'
p88
I16896540
sS'want'
p89
I91252569
sS'end'
p90
I111048587
sS'inhabitants'
p91
I9332468
sS'how'
p92
I187825642
sS'adjacent'
p93
I6505612
sS'answer'
p94
I40616954
sS'badly'
p95
I5818792
sS'oceans'
p96
I1260934
sS'ladder'
p97
I2946507
sS'after'
p98
I234413488
sS'demanding'
p99
I3864957
sS'wrong'
p100
I27182051
sS'attempt'
p101
I28240565
sS'third'
p102
I48584270
sS'sickening'
p103
I446995
sS'cigarettes'
p104
I1994107
sS'green'
p105
I26187240
sS'order'
p106
I114008305
sS'wind'
p107
I21513520
sS'office'
p108
I45038925
sS'over'
p109
I269599454
sS'oven'
p110
I3602013
sS'japan'
p111
I87003
sS'ticket'
p112
I3729565
sS'before'
p113
I218125316
sS'sonys'
p114
I787
sS'smartbomb'
p115
I63
sS'chemistrys'
p116
I0
sS'better'
p117
I85963172
sS'production'
p118
I44448364
sS'then'
p119
I283578912
sS'them'
p120
I462377168
sS'bladesmithing'
p121
I91
sS'widely'
p122
I13588852
sS'combination'
p123
I16015088
sS'break'
p124
I20379103
sS'band'
p125
I14425601
sS'owned'
p126
I11319898
sS'they'
p127
I739975345
sS'blink'
p128
I557425
sS'structural'
p129
I8692013
sS'meat'
p130
I10975637
sS'potatoes'
p131
I3948887
sS'debut'
p132
I999625
sS'good'
p133
I190893794
sS'each'
p134
I206475219
sS'went'
p135
I95336905
sS'meal'
p136
I8318693
sS'mean'
p137
I53803704
sS'lifted'
p138
I8005332
sS'series'
p139
I37980646
sS'displacement'
p140
I4001883
sS'used'
p141
I188846454
sS'aids'
p142
I2682024
sS'borne'
p143
I5767892
sS'forty'
p144
I16106080
sS'laid'
p145
I20880935
sS'got'
p146
I74688989
sS'engineer'
p147
I5266733
sS'throwbacks'
p148
I13354
sS'threatened'
p149
I7768230
sS'free'
p150
I68139641
sS'standard'
p151
I32393249
sS'wanted'
p152
I45758553
sS'certified'
p153
I2066789
sS'shaggy'
p154
I538155
sS'ritual'
p155
I5559711
sS'days'
p156
I88510458
sS'outfits'
p157
I458248
sS'silicon'
p158
I1892711
sS'shipped'
p159
I2476341
sS'signature'
p160
I3423517
sS'uses'
p161
I19678464
sS'rang'
p162
I3331623
sS'industrial'
p163
I18313200
sS'grade'
p164
I11804211
sS'hearing'
p165
I14769397
sS'floors'
p166
I2842025
sS'disappearing'
p167
I1191215
sS'another'
p168
I143660698
sS'thick'
p169
I15090219
sS'rated'
p170
I2690995
sS'service'
p171
I60653992
sS'top'
p172
I40791068
sS'elevator'
p173
I2334202
sS'2'
p174
I303496017
sS'master'
p175
I22698484
sS'tom'
p176
I513008
sS'farming'
p177
I4119280
sS'danish'
p178
I9420
sS'collapse'
p179
I4228583
sS'tool'
p180
I9985772
sS'villages'
p181
I6290267
sS'took'
p182
I89639368
sS'exhilarating'
p183
I450011
sS'peculiar'
p184
I10758301
sS'nations'
p185
I18169091
sS'seminars'
p186
I931776
sS'iron'
p187
I22860973
sS'feeling'
p188
I33840358
sS'ran'
p189
I20557773
sS'boston'
p190
I30075
sS'modern'
p191
I36442057
sS'talking'
p192
I19123135
sS'manner'
p193
I40428343
sS'rotors'
p194
I164717
sS'relatively'
p195
I22273945
sS'forced'
p196
I19749110
sS'snow'
p197
I11649078
sS'causing'
p198
I7830144
sS'absorbed'
p199
I6255595
sS'doors'
p200
I10045654
sS'gallardo'
p201
I1774
sS'drought'
p202
I1546784
sS'bounced'
p203
I748631
sS'episode'
p204
I3883238
sS'alarm'
p205
I4829823
sS'partition'
p206
I2649459
sS'metal'
p207
I16580566
sS'dog'
p208
I15959205
sS'came'
p209
I121717337
sS'visitor'
p210
I3628050
sS'gauge'
p211
I2704709
sS'playstation3'
p212
I0
sS'moniker'
p213
I69636
sS'wearing'
p214
I8379885
sS'plate'
p215
I14754900
sS'sunglasses'
p216
I430599
sS'fossil'
p217
I1894033
sS'stop'
p218
I25521149
sS'baffle'
p219
I289667
sS'cushion'
p220
I1061331
sS'despite'
p221
I12824955
sS'earn'
p222
I4366475
sS'covering'
p223
I8011951
sS'fields'
p224
I19135621
sS'twice'
p225
I14159373
sS'gears'
p226
I997181
sS'shots'
p227
I3197775
sS'quintessential'
p228
I264751
sS'respond'
p229
I9022588
sS'reference'
p230
I25464294
sS'decided'
p231
I26887677
sS'result'
p232
I68380648
sS'hammer'
p233
I2447573
sS'best'
p234
I90388193
sS'said'
p235
I348526847
sS'away'
p236
I104036616
sS'plummeting'
p237
I73130
sS'quadrillion'
p238
I22978
sS'360'
p239
I3814594
sS'preserve'
p240
I7143259
sS'adventuresome'
p241
I66651
sS'we'
p242
I600896170
sS'rolled'
p243
I6853180
sS'weak'
p244
I14219090
sS'loading'
p245
I3907033
sS'carbon'
p246
I11010760
sS'kitchen'
p247
I11850412
sS'suggested'
p248
I23629294
sS'climate'
p249
I7898151
sS'country'
p250
I89059951
sS'games'
p251
I8738189
sS'asked'
p252
I75186463
sS'pre'
p253
I10711054
sS'tough'
p254
I4774659
sS'snakeskin'
p255
I29298
sS'incessant'
p256
I1089141
sS'tons'
p257
I7156916
sS'wider'
p258
I5732669
sS'speak'
p259
I33638654
sS'conference'
p260
I9867057
sS'trapdoor'
p261
I109180
sS'ropes'
p262
I1568437
sS'three'
p263
I165264511
sS'been'
p264
I568236593
sS'quickly'
p265
I27573873
sS'beep'
p266
I156172
sS'much'
p267
I216893999
sS'replicate'
p268
I568155
sS'basic'
p269
I28892866
sS'expected'
p270
I32945662
sS'parents'
p271
I35573524
sS'acuity'
p272
I620535
sS'containers'
p273
I1953757
sS'life'
p274
I210628221
sS'darfur'
p275
I319
sS'hoist'
p276
I421017
sS'worked'
p277
I27377981
sS'air'
p278
I62651517
sS'near'
p279
I58315782
sS'aural'
p280
I300709
sS'voice'
p281
I47026547
sS'launched'
p282
I3924219
sS'cavern'
p283
I725982
sS'seven'
p284
I28894355
sS'played'
p285
I19507292
sS'is'
p286
I2993815184
sS'it'
p287
I1686686947
sS'experts'
p288
I5486228
sS'in'
p289
I5457466530
sS'spending'
p290
I7183083
sS'seattle'
p291
I4005
sS'id'
p292
I3306756
sS'if'
p293
I411367074
sS'grown'
p294
I14454074
sS'confirmed'
p295
I7865180
sS'descent'
p296
I4405300
sS'things'
p297
I102304305
sS'make'
p298
I191921684
sS'polaroid'
p299
I16720
sS'ordinariness'
p300
I52007
sS'belly'
p301
I3077780
sS'plates'
p302
I8200138
sS'several'
p303
I87970428
sS'harming'
p304
I281346
sS'wheel'
p305
I7849521
sS'_START_s'
p306
I0
sS'_START_t'
p307
I0
sS'_START_u'
p308
I0
sS'outperformed'
p309
I79784
sS'hand'
p310
I118374066
sS'earlobes'
p311
I47771
sS'insisted'
p312
I7900170
sS'thoughts'
p313
I18947530
sS'kid'
p314
I4963597
sS'butter'
p315
I6751843
sS'1975'
p316
I15559159
sS'1972'
p317
I14859768
sS'ocean'
p318
I8837927
sS'mother'
p319
I69379658
sS'hearts'
p320
I10066007
sS'the'
p321
I16977752813
sS'corporate'
p322
I9823493
sS'left'
p323
I117160209
sS'seasonal'
p324
I2282552
sS'just'
p325
I175293737
sS'grades'
p326
I5214707
sS'thanks'
p327
I7896174
sS'human'
p328
I85664998
sS'yes'
p329
I11565494
sS'scattering'
p330
I3110905
sS'yet'
p331
I86446120
sS'impending'
p332
I1604407
sS'eli'
p333
I22514
sS'terrazzo'
p334
I41541
sS'expos'
p335
I14161
sS'ease'
p336
I8584630
sS'had'
p337
I1003809315
sS'has'
p338
I568610335
sS'gave'
p339
I60974147
sS'bayonet'
p340
I581930
sS'melting'
p341
I3200685
sS'intercom'
p342
I261354
sS'possibly'
p343
I14905664
sS'descending'
p344
I2653481
sS'birth'
p345
I19228008
sS'designers'
p346
I1795213
sS'brought'
p347
I62016301
sS'cooler'
p348
I1350404
sS'xbox'
p349
I384
sS'offices'
p350
I9170420
sS'night'
p351
I75718150
sS'right'
p352
I156138269
sS'old'
p353
I139483670
sS'stereotype'
p354
I828702
sS'people'
p355
I220804503
sS'somehow'
p356
I7644245
sS'born'
p357
I42027388
sS'humor'
p358
I5410619
sS'for'
p359
I2237494424
sS'bottom'
p360
I20236845
sS'ice'
p361
I14327611
sS'contributing'
p362
I2795982
sS'asking'
p363
I11956576
sS'beating'
p364
I3827001
sS'christmas'
p365
I11274
sS'dolce'
p366
I91126
sS'corn'
p367
I9466408
sS'burn'
p368
I5369320
sS'diner'
p369
I365096
sS'dollars'
p370
I18846350
sS'months'
p371
I44015338
sS'magazine'
p372
I7495176
sS'plus'
p373
I12950173
sS'islands'
p374
I7309000
sS'slightly'
p375
I19195690
sS'whats'
p376
I39715
sS'down'
p377
I178359219
sS'entrepreneur'
p378
I894304
sS'magazines'
p379
I4274587
sS'often'
p380
I114302734
sS'constantly'
p381
I11838682
sS'stuck'
p382
I5268405
sS'way'
p383
I211287856
sS'was'
p384
I2073893689
sS'war'
p385
I77957182
sS'form'
p386
I118529853
sS'offer'
p387
I24800250
sS'landing'
p388
I5084260
sS'heat'
p389
I29254225
sS'_END_'
p390
I0
sS'removed'
p391
I21589467
sS'braves'
p392
I291934
sS'inside'
p393
I27482753
sS'attached'
p394
I13693050
sS'maximum'
p395
I17572456
sS'until'
p396
I103387777
sS'stages'
p397
I11175136
sS'trim'
p398
I1872714
sS'later'
p399
I88988575
sS'forearm'
p400
I1149576
sS'sometime'
p401
I2102684
sS'fashioned'
p402
I3655606
sS'chuckling'
p403
I286137
sS'eventual'
p404
I1808710
sS'no'
p405
I452779722
sS'when'
p406
I446892209
sS'interested'
p407
I19241703
sS'papers'
p408
I15263409
sS'test'
p409
I41399387
sS'developers'
p410
I1419176
sS'smell'
p411
I6503006
sS'brothers'
p412
I10198566
sS'felt'
p413
I61059028
sS'fell'
p414
I25464265
sS'cleaver'
p415
I81936
sS'died'
p416
I38692707
sS'billion'
p417
I8114265
sS'longer'
p418
I46527592
sS'bestowed'
p419
I2221477
sS'home'
p420
I99061705
sS'salt'
p421
I14427944
sS'together'
p422
I74600348
sS'jacket'
p423
I3842627
sS'time'
p424
I421149605
sS'conferred'
p425
I2605104
sS'neighbors'
p426
I6472960
sS'chain'
p427
I12843666
sS'switched'
p428
I1899341
sS'global'
p429
I9039497
sS'manager'
p430
I11812385
sS'supplement'
p431
I2938109
sS'bomber'
p432
I718493
sS'supposedly'
p433
I2150693
sS'factories'
p434
I3771128
sS'depend'
p435
I10956967
sS'nineteen'
p436
I2646624
sS'father'
p437
I71652827
sS'editors'
p438
I4072141
sS'1945'
p439
I7619837
sS'finally'
p440
I30122661
sS'fog'
p441
I2684137
sS'permanently'
p442
I3379121
sS'shoot'
p443
I5141087
sS'keeping'
p444
I14959134
sS'seemingly'
p445
I4222651
sS'trouble'
p446
I20103558
sS'cool'
p447
I10165033
sS'cooks'
p448
I884827
sS'staples'
p449
I445458
sS'did'
p450
I277250880
sS'brother'
p451
I29978835
sS'culminating'
p452
I788333
sS'settle'
p453
I6533612
sS'quick'
p454
I13091364
sS'guy'
p455
I7649574
sS'moussed'
p456
I3068
sS'shave'
p457
I670056
sS'plummet'
p458
I137266
sS'says'
p459
I57898555
sS'nineties'
p460
I460272
sS'porn'
p461
I237339
sS'bleszinski'
p462
I0
sS'slowed'
p463
I1682942
sS'cost'
p464
I48045369
sS'chopping'
p465
I487952
sS'shirts'
p466
I1889863
sS'forging'
p467
I637340
sS'endangering'
p468
I309368
sS'peacockish'
p469
I282
sS'appear'
p470
I39759425
sS'entrapment'
p471
I290549
sS'melt'
p472
I2251747
sS'current'
p473
I43484748
sS'annals'
p474
I960117
sS'international'
p475
I23312675
sS'falling'
p476
I10310007
sS'hummer'
p477
I17551
sS'supporting'
p478
I7199717
sS'transportation'
p479
I8792142
sS'water'
p480
I121972365
sS'contemplate'
p481
I1535551
sS'alone'
p482
I48192042
sS'along'
p483
I71094350
sS'change'
p484
I82386809
sS'box'
p485
I23462254
sS'passengers'
p486
I4433900
sS'thirty'
p487
I23240021
sS'dusty'
p488
I1669433
sS'shooter'
p489
I387180
sS'bangs'
p490
I207780
sS'bob'
p491
I412148
sS'nylon'
p492
I735918
sS'studies'
p493
I38054712
sS'pillow'
p494
I2279618
sS'stubbed'
p495
I81747
sS'tasks'
p496
I9680049
sS'love'
p497
I84543580
sS'merely'
p498
I28861178
sS'marked'
p499
I20069651
sS'flexibility'
p500
I3830000
sS'market'
p501
I40774257
sS'working'
p502
I45273668
sS'visit'
p503
I22102129
sS'by'
p504
I1585417348
sS'unadorned'
p505
I211850
sS'opposed'
p506
I12240707
sS'gabbana'
p507
I0
sS'today'
p508
I32332504
sS'itineraries'
p509
I120102
sS'rainfall'
p510
I1814067
sS'commissioner'
p511
I2006234
sS'apparent'
p512
I15845884
sS'downtown'
p513
I2830014
sS'fuel'
p514
I8949058
sS'visual'
p515
I10185869
sS'everywhere'
p516
I9918027
sS'car'
p517
I29533612
sS'cap'
p518
I6528488
sS'soul'
p519
I30098509
sS'can'
p520
I607915213
sS'growing'
p521
I23777672
sS'cab'
p522
I1926997
sS'arrive'
p523
I7024488
sS'thicknesses'
p524
I479658
sS'meant'
p525
I23634911
sS'performer'
p526
I1238403
sS'predict'
p527
I3956517
sS'amalgams'
p528
I54327
sS'dropped'
p529
I12538458
sS'allowed'
p530
I28687065
sS'occur'
p531
I28132087
sS'cowlicked'
p532
I745
sS'following'
p533
I97083146
sS'exceptional'
p534
I3419332
sS'dinner'
p535
I15843264
sS'gamers'
p536
I36919
sS'skater'
p537
I121019
sS'map'
p538
I11842787
sS'paramount'
p539
I1449122
sS'may'
p540
I431605309
sS'eighty'
p541
I4738021
sS'crashed'
p542
I1073453
sS'produce'
p543
I31846847
sS'designed'
p544
I21971500
sS'drastic'
p545
I1471146
sS'revealed'
p546
I11893192
sS'grow'
p547
I17256026
sS'man'
p548
I234600833
sS'natural'
p549
I49617308
sS'whenever'
p550
I9629291
sS'provide'
p551
I47414515
sS'accelerated'
p552
I2251885
sS'so'
p553
I495581448
sS'stylings'
p554
I12091
sS'tall'
p555
I11296829
sS'fireball'
p556
I115192
sS'pulled'
p557
I14856043
sS'serving'
p558
I9177387
sS'shoes'
p559
I7642353
sS'haircut'
p560
I287751
sS'years'
p561
I202848359
sS'cuts'
p562
I4558601
sS'argued'
p563
I10703098
sS'cold'
p564
I30840864
sS'still'
p565
I145908352
sS'jock'
p566
I101491
sS'tore'
p567
I2231729
sS'forms'
p568
I44776096
sS'farmer'
p569
I6798875
sS'main'
p570
I37334337
sS'decades'
p571
I7858963
sS'happened'
p572
I25032145
sS'non'
p573
I34579215
sS'qualifies'
p574
I570435
sS'matches'
p575
I2292239
sS'cowering'
p576
I178109
sS'slacks'
p577
I407109
sS'wealthy'
p578
I4766548
sS'not'
p579
I1729472419
sS'now'
p580
I223361097
sS'killed'
p581
I20597760
sS'nor'
p582
I54234658
sS'matched'
p583
I3020543
sS'wagon'
p584
I4411460
sS'name'
p585
I96110066
sS'rendering'
p586
I3166476
sS'corners'
p587
I3999628
sS'scolded'
p588
I527953
sS'quarter'
p589
I11925682
sS'square'
p590
I21326311
sS'significantly'
p591
I9268404
sS'bursting'
p592
I1414134
sS'challenges'
p593
I4932893
sS'tranbergs'
p594
I0
sS'fires'
p595
I4409446
sS'year'
p596
I129055421
sS'worried'
p597
I5314956
sS'canada'
p598
I13816
sS'accomplish'
p599
I5923717
sS'opened'
p600
I26375513
sS'looking'
p601
I42042925
sS'dioxide'
p602
I3885204
sS'shows'
p603
I39234520
sS'earlier'
p604
I33618588
sS'cars'
p605
I9691377
sS'million'
p606
I29168711
sS'pumping'
p607
I1543396
sS'quite'
p608
I60399439
sS'complicated'
p609
I8439147
sS'marine'
p610
I4043248
sS'seventy'
p611
I6109917
sS'advance'
p612
I15890102
sS'waiter'
p613
I1479759
sS'punk'
p614
I401316
sS'turn'
p615
I50232611
sS'place'
p616
I142395638
sS'aboard'
p617
I3276142
sS'blacksmith'
p618
I905059
sS'think'
p619
I116576584
sS'waited'
p620
I9360454
sS'first'
p621
I306184915
sS'one'
p622
I729235210
sS'long'
p623
I179844917
sS'drove'
p624
I9149276
sS'open'
p625
I66354600
sS'size'
p626
I43541256
sS'city'
p627
I66786133
sS'little'
p628
I170911635
sS'personalities'
p629
I2239350
sS'caught'
p630
I17527212
sS'trillion'
p631
I500233
sS't'
p632
I32897977
sS'traction'
p633
I1002095
sS'twenties'
p634
I1406820
sS'terrifying'
p635
I1126706
sS'white'
p636
I73341747
sS'cliffyb'
p637
I0
sS'mining'
p638
I5457950
sS'hug'
p639
I1251424
sS'that'
p640
I2879609242
sS'continuous'
p641
I13085338
sS'expanse'
p642
I1053811
sS'released'
p643
I8931661
sS'than'
p644
I435217453
sS'11'
p645
I62631629
sS'wide'
p646
I33162854
sS'television'
p647
I11758829
sS'crossroads'
p648
I515222
sS'coats'
p649
I2178504
sS'knives'
p650
I1612041
sS'were'
p651
I804642307
sS'janitor'
p652
I360821
sS'and'
p653
I8169066412
sS'san'
p654
I556751
sS'turned'
p655
I56152417
sS'say'
p656
I125218651
sS'insatiable'
p657
I541875
sS'saw'
p658
I68903829
sS'sat'
p659
I27958243
sS'ideas'
p660
I30951599
sS'equipment'
p661
I20912538
sS'take'
p662
I140085697
sS'online'
p663
I4751899
sS'personalized'
p664
I506724
sS'fashionably'
p665
I102550
sS'blunt'
p666
I1638598
sS'sure'
p667
I49423226
sS'altered'
p668
I6490747
sS'normal'
p669
I37039022
sS'buffer'
p670
I3389806
sS'neatly'
p671
I2162358
sS'visitors'
p672
I5658441
sS'assault'
p673
I4600120
sS'pair'
p674
I14077461
sS'america'
p675
I43231
sS'especially'
p676
I58999097
sS'average'
p677
I34177842
sS'proud'
p678
I9221632
sS'drive'
p679
I18828142
sS'ferrari'
p680
I662
sS'refining'
p681
I1057015
sS'subsequent'
p682
I13828848
sS'professional'
p683
I20931844
sS'typically'
p684
I9015870
sS'shop'
p685
I10802911
sS'rating'
p686
I3600275
sS'lotus'
p687
I563770
sS'friction'
p688
I3873257
sS'fifty'
p689
I17445548
sS'bright'
p690
I16044494
sS'corner'
p691
I16326343
sS'fifth'
p692
I9642622
sS'geography'
p693
I2752496
sS'title'
p694
I22205816
sS'jolt'
p695
I388857
sS'sloop'
p696
I566662
sS'only'
p697
I385703455
sS'black'
p698
I57818835
sS'carolina'
p699
I21576
sS'narrows'
p700
I347289
sS'get'
p701
I136675605
sS'soon'
p702
I57480107
sS'cannot'
p703
I35471
sS'nearly'
p704
I35868978
sS'gee'
p705
I178794
sS'awaiting'
p706
I2075565
sS'reveal'
p707
I7866195
sS'leather'
p708
I5587881
sS'seldom'
p709
I8367772
sS'yield'
p710
I12598007
sS'morning'
p711
I44768481
sS'craftsmanship'
p712
I392117
sS'miles'
p713
I37224962
sS'uncover'
p714
I820850
sS'where'
p715
I229743842
sS'husband'
p716
I30372783
sS'professes'
p717
I401938
sS'molelike'
p718
I2688
sS'guterres'
p719
I0
sS'parking'
p720
I3876665
sS'connected'
p721
I18331779
sS'farmers'
p722
I8704914
sS'ways'
p723
I40118479
sS'jumped'
p724
I4793471
sS'weapons'
p725
I8778297
sS'denmarks'
p726
I0
sS'behind'
p727
I47106224
sS'between'
p728
I235764959
sS'ruptured'
p729
I522662
sS'oversized'
p730
I371039
sS'arrival'
p731
I9421170
sS'jobs'
p732
I11708404
sS'vertical'
p733
I10295936
sS'aversion'
p734
I1314436
sS'killing'
p735
I6307410
sS'article'
p736
I18412235
sS'come'
p737
I132941254
sS'many'
p738
I239442096
sS'according'
p739
I41410661
sS's'
p740
I194679152
sS'aura'
p741
I1096351
sS'nearby'
p742
I6330280
sS'among'
p743
I101030950
sS'color'
p744
I30567505
sS'jeans'
p745
I1511553
sS'insist'
p746
I4034707
sS'capable'
p747
I15340478
sS'west'
p748
I18676670
sS'porsche'
p749
I490
sS'engine'
p750
I10987064
sS'educated'
p751
I7401003
sS'shortages'
p752
I977734
sS'thousand'
p753
I31834993
sS'formed'
p754
I31034676
sS'observe'
p755
I9631113
sS'former'
p756
I33665092
sS'those'
p757
I231532900
sS'pilot'
p758
I5338042
sS'sound'
p759
I37685868
sS'shaft'
p760
I4653040
sS'stacked'
p761
I1094772
sS'washington'
p762
I17680
sS'these'
p763
I357421366
sS'variances'
p764
I721727
sS'lookout'
p765
I766908
sS'eventually'
p766
I13282280
sS'im'
p767
I3894571
sS'thickly'
p768
I992709
sS'middle'
p769
I33342499
sS'pressing'
p770
I4871872
sS'baths'
p771
I1672975
sS'affected'
p772
I16894194
sS'property'
p773
I49465924
sS'technology'
p774
I16692075
sS'bags'
p775
I3576792
sS'different'
p776
I121366798
sS'april'
p777
I38947
sS'bowl'
p778
I5564617
sS'same'
p779
I223951131
sS'dealer'
p780
I3099502
sS'manila'
p781
I176681
sS'sams'
p782
I6216
sS'stepped'
p783
I7982129
sS'status'
p784
I23698402
sS'oil'
p785
I29681566
sS'centuries'
p786
I11859744
sS'arctic'
p787
I472648
sS'driver'
p788
I7392323
sS'weed'
p789
I1692375
sS'director'
p790
I11620514
sS'changing'
p791
I14482330
sS'renewable'
p792
I480488
sS'theater'
p793
I5889718
sS'largely'
p794
I17762123
sS'patchwork'
p795
I343679
sS'ranch'
p796
I2456465
sS'roughly'
p797
I5144226
sS'pacing'
p798
I1109117
sS'severe'
p799
I16503704
sS'without'
p800
I162095229
sS'model'
p801
I41672078
sS'being'
p802
I202812995
sS'rest'
p803
I46103513
sS'kiln'
p804
I612982
sS'touch'
p805
I16831042
sS'speed'
p806
I20404253
sS'announcement'
p807
I2776406
sS'death'
p808
I76034328
sS'generator'
p809
I2629544
sS'bowie'
p810
I70185
sS'seems'
p811
I54543238
sS'blog'
p812
I268231
sS'tranberg'
p813
I0
sS'lets'
p814
I2579109
sS'setting'
p815
I19781424
sS'pile'
p816
I4427801
sS'heavier'
p817
I2480010
sS'styles'
p818
I4971824
sS'around'
p819
I95455826
sS'read'
p820
I56910091
sS'mop'
p821
I384920
sS'virginia'
p822
I10283
sS'dark'
p823
I35364510
sS'chainsaw'
p824
I34151
sS'world'
p825
I143517023
sS'railroad'
p826
I8975717
sS'fortune'
p827
I8492799
sS'photographs'
p828
I5279219
sS'annually'
p829
I4592989
sS'manglings'
p830
I1040
sS'laughing'
p831
I5999408
sS'tower'
p832
I5363599
sS'rubys'
p833
I337
sS'images'
p834
I13861248
sS'memories'
p835
I6071315
sS'dauntingly'
p836
I10388
sS'stops'
p837
I4087662
sS'conservative'
p838
I7168199
sS'critical'
p839
I22530056
sS'exit'
p840
I3844240
sS'inhabited'
p841
I2097197
sS'knife'
p842
I6895489
sS'wheat'
p843
I6977688
sS'business'
p844
I78324283
sS'manufactured'
p845
I3742824
sS'chefs'
p846
I285085
sS'1936'
p847
I6832563
sS'sixty'
p848
I8639702
sS'prepared'
p849
I25589741
sS'on'
p850
I1590055716
sS'cornucopia'
p851
I110442
sS'island'
p852
I14788696
sS'industry'
p853
I30143313
sS'favorite'
p854
I9098985
sS'generated'
p855
I8750423
sS'chop'
p856
I848359
sS'stand'
p857
I31646376
sS'act'
p858
I49826461
sS'corals'
p859
I330583
sS'or'
p860
I1343661918
sS'road'
p861
I30575755
sS'lands'
p862
I14225909
sS'aortic'
p863
I1604708
sS'burning'
p864
I9867077
sS'malfunction'
p865
I303367
sS'whites'
p866
I6410130
sS'image'
p867
I27762751
sS'earring'
p868
I142551
sS'rising'
p869
I12136247
sS'bedtime'
p870
I680355
sS'heated'
p871
I5393858
sS'operator'
p872
I7349983
sS'her'
p873
I707978408
sS'hes'
p874
I116182
sS'assumed'
p875
I17743931
sS'there'
p876
I436569972
sS'hed'
p877
I257742
sS'start'
p878
I28561280
sS'lot'
p879
I30780806
sS'valley'
p880
I9550468
sS'allergic'
p881
I1341329
sS'mornings'
p882
I1105231
sS'enough'
p883
I76927506
sS'buggy'
p884
I685642
sS'trying'
p885
I29652342
sS'downstairs'
p886
I2093777
sS'faster'
p887
I6667848
sS'october'
p888
I20328
sS'aneurysm'
p889
I644637
sS'emissions'
p890
I1631367
sS'torso'
p891
I684800
sS'trips'
p892
I3566352
sS'chaplin'
p893
I2837
sS'gone'
p894
I35664926
sS'migrate'
p895
I964552
sS'moved'
p896
I32312607
sS'sales'
p897
I18105989
sS'an'
p898
I924038039
sS'as'
p899
I1912169684
sS'at'
p900
I1189333862
sS'planets'
p901
I2421779
sS'importing'
p902
I787114
sS'watched'
p903
I13438958
sS'moves'
p904
I9146242
sS'cables'
p905
I1531592
sS'film'
p906
I19684918
sS'again'
p907
I121936126
sS'heather'
p908
I339073
sS'drivers'
p909
I2813798
sS'swords'
p910
I1758047
sS'tight'
p911
I7130840
sS'5'
p912
I159541802
sS'2006'
p913
I5939765
sS'passerby'
p914
I97686
sS'tankers'
p915
I276816
sS'important'
p916
I106469653
sS'included'
p917
I29996799
sS'building'
p918
I39069668
sS'curve'
p919
I14321012
sS'babbitt'
p920
I29979
sS'mass'
p921
I28320538
sS'wielding'
p922
I340736
sS'axles'
p923
I229468
sS'all'
p924
I722941287
sS'infestations'
p925
I129228
sS'kattegat'
p926
I0
sS'ladders'
p927
I516252
sS'debris'
p928
I2028739
sS'ron'
p929
I122473
sS'hunting'
p930
I6934348
sS'tv'
p931
I288515
sS'to'
p932
I7021393210
sS'aaron'
p933
I8551
sS'shaftway'
p934
I1740
sS'woman'
p935
I67271393
sS'returned'
p936
I31260634
sS'straightforward'
p937
I2575152
sS'sitting'
p938
I17086403
sS'very'
p939
I257622987
sS'richtig'
p940
I16208
sS'fall'
p941
I35005600
sS'bubbles'
p942
I1438657
sS'difference'
p943
I36980441
sS'treating'
p944
I4516373
sS'cable'
p945
I5757555
sS'mild'
p946
I6168126
sS'jrgen'
p947
I0
sS'small'
p948
I122148470
sS'approximately'
p949
I14748870
sS'ten'
p950
I40608779
sS'streets'
p951
I13003552
sS'grsofwar'
p952
I0
sS'past'
p953
I54887156
sS'rate'
p954
I59288392
sS'design'
p955
I33966430
sS'creatures'
p956
I6252738
sS'what'
p957
I359690925
sS'imported'
p958
I4002685
sS'importer'
p959
I377520
sS'sur'
p960
I3649445
sS'learned'
p961
I28613178
sS'contrast'
p962
I19444573
sS'movement'
p963
I39552139
sS'full'
p964
I72234736
sS'compressed'
p965
I2449086
sS'november'
p966
I21911
sS'observing'
p967
I3936313
sS'search'
p968
I19382261
sS'stretching'
p969
I2852387
sS'experience'
p970
I60549348
sS'amount'
p971
I51540293
sS'social'
p972
I90218656
sS'runoff'
p973
I753977
sS'narrow'
p974
I16034259
sS'via'
p975
I9865436
sS'shorthand'
p976
I639652
sS'family'
p977
I95193997
sS'suddenly'
p978
I20791006
sS'africa'
p979
I13056
sS'ask'
p980
I35729068
sS'chunks'
p981
I743427
sS'extinction'
p982
I2036324
sS'armed'
p983
I9556774
sS'conventional'
p984
I8651519
sS'eye'
p985
I32612195
sS'culinary'
p986
I486719
sS'epicboy'
p987
I0
sS'two'
p988
I352328213
sS'injury'
p989
I13377788
sS'more'
p990
I548964199
sS'teen'
p991
I1318354
sS'diamond'
p992
I2711252
sS'door'
p993
I51093776
sS'company'
p994
I53595544
sS'site'
p995
I25505762
sS'stick'
p996
I7917038
sS'particular'
p997
I59016401
sS'known'
p998
I87705982
sS'mellow'
p999
I664743
sS'mounted'
p1000
I6710282
sS'producing'
p1001
I11667609
sS'town'
p1002
I44491591
sS'none'
p1003
I24556783
sS'hour'
p1004
I36516530
sS'recall'
p1005
I8559238
sS'rammings'
p1006
I744
sS'nebraska'
p1007
I2137
sS'specialized'
p1008
I5251391
sS'impacts'
p1009
I1674634
sS'brown'
p1010
I16598665
sS'epics'
p1011
I317905
sS'share'
p1012
I26977157
sS'states'
p1013
I43759026
sS'pushed'
p1014
I9563210
sS'rainstorm'
p1015
I130337
sS'sense'
p1016
I68968009
sS'cows'
p1017
I3046618
sS'sharp'
p1018
I12791415
sS'airplane'
p1019
I2389885
sS'dress'
p1020
I12709933
sS'species'
p1021
I34052162
sS'terrestrial'
p1022
I1491647
sS'information'
p1023
I87865608
sS'rather'
p1024
I87742537
sS'glowing'
p1025
I2383561
sS'occasionally'
p1026
I10983402
sS'earnings'
p1027
I6548040
sS'speeding'
p1028
I765376
sS'waved'
p1029
I3092731
sS'plant'
p1030
I25672061
sS'floor'
p1031
I26833734
sS'waves'
p1032
I10859620
sS'response'
p1033
I34228402
sS'a'
p1034
I5362936806
sS'short'
p1035
I61376221
sS'cooperatives'
p1036
I850082
sS'deserted'
p1037
I3418779
sS'coal'
p1038
I10633403
sS'playing'
p1039
I14973540
sS'september'
p1040
I16033
sS'bladesmiths'
p1041
I588
sS'trade'
p1042
I36659688
sS'held'
p1043
I66632399
sS'attitude'
p1044
I17261546
sS'already'
p1045
I67593182
sS'through'
p1046
I238623558
sS'turbine'
p1047
I1307896
sS'its'
p1048
I457537232
sS'golfing'
p1049
I127843
sS'25'
p1050
I54748179
sS'style'
p1051
I27489897
sS'rapidly'
p1052
I16854708
sS'late'
p1053
I44939873
sS'resort'
p1054
I4887558
sS'travelling'
p1055
I2265802
sS'might'
p1056
I152739508
sS'colleague'
p1057
I2187322
sS'someone'
p1058
I27381358
sS'entire'
p1059
I34214872
sS'unusable'
p1060
I158646
sS'walls'
p1061
I19623723
sS'party'
p1062
I53332049
sS'foot'
p1063
I26508620
sS'instructions'
p1064
I10758404
sS'feet'
p1065
I58195782
sS'always'
p1066
I109385838
sS'buffing'
p1067
I63714
sS'fairs'
p1068
I633137
sS'stopped'
p1069
I20045277
sS'found'
p1070
I158653570
sS'barrels'
p1071
I2100972
sS'week'
p1072
I32000937
sS'bladelike'
p1073
I12193
sS'restless'
p1074
I2680593
sS'weight'
p1075
I31388155
sS'house'
p1076
I88238824
sS'energy'
p1077
I43507422
sS'exorbitant'
p1078
I466038
sS'persona'
p1079
I1015870
sS'really'
p1080
I58626787
sS'since'
p1081
I100538853
sS'projected'
p1082
I3896980
sS'hydraulic'
p1083
I1565059
sS'safeties'
p1084
I21985
sS'safety'
p1085
I15543315
sS'hill'
p1086
I10205759
sS'highway'
p1087
I4776766
sS'ringling'
p1088
I245
sS'dirt'
p1089
I4287417
sS'friday'
p1090
I20110
sS'houses'
p1091
I19683457
sS'base'
p1092
I31323648
sS'put'
p1093
I90448005
sS'attendant'
p1094
I2559428
sS'earliest'
p1095
I7929123
sS'prefab'
p1096
I27494
sS'terribly'
p1097
I2290498
sS'american'
p1098
I90231
sS'expecting'
p1099
I3237847
sS'circuit'
p1100
I12565302
sS'olympia'
p1101
I1765
sS'number'
p1102
I137389844
sS'industrially'
p1103
I199555
sS'sailor'
p1104
I2014331
sS'talked'
p1105
I11564185
sS'done'
p1106
I79258175
sS'least'
p1107
I80057110
sS'climbing'
p1108
I2978344
sS'tougher'
p1109
I503423
sS'story'
p1110
I50153846
sS'temperature'
p1111
I32278988
sS'guaranteeing'
p1112
I488629
sS'twenty'
p1113
I42517867
sS'swipe'
p1114
I137621
sS'rails'
p1115
I1691277
sS'hollows'
p1116
I469784
sS'passed'
p1117
I40749503
sS'hundred'
p1118
I45158834
sS'store'
p1119
I17226961
sS'selling'
p1120
I9496368
sS'trapped'
p1121
I2494628
sS'park'
p1122
I7363335
sS'rifle'
p1123
I3637658
sS'believe'
p1124
I54230075
sS'convinced'
p1125
I9363991
sS'kind'
p1126
I68270234
sS'b'
p1127
I43469182
sS'determines'
p1128
I4443208
sS'greg'
p1129
I5239
sS'toward'
p1130
I62962956
sS'remembers'
p1131
I1874744
sS'alongside'
p1132
I3124517
sS'ager'
p1133
I140968
sS'orders'
p1134
I17859635
sS'showcased'
p1135
I63807
sS'transference'
p1136
I998967
sS'also'
p1137
I339197557
sS'swordsmen'
p1138
I44877
sS'play'
p1139
I46918883
sS'experienced'
p1140
I13967858
sS'reach'
p1141
I23565064
sS'cigarette'
p1142
I3776340
sS'strongest'
p1143
I3849418
sS'equatorial'
p1144
I668441
sS'dissolves'
p1145
I961138
sS'snapping'
p1146
I708004
sS'rockefeller'
p1147
I1776
sS'_START_'
p1148
I0
sS'tongs'
p1149
I358400
sS'ennoble'
p1150
I98447
sS'phenomenon'
p1151
I8570206
sS'stunned'
p1152
I1593003
sS'nasdaq'
p1153
I947
sS'impact'
p1154
I17091446
sS'wolfe'
p1155
I8561
sS'sluggishly'
p1156
I101148
sS'pretty'
p1157
I18800633
sS'inadvisable'
p1158
I151960
sS'his'
p1159
I1343521188
sS'hit'
p1160
I14414298
sS'meanwhile'
p1161
I2288270
sS'beams'
p1162
I3155983
sS'express'
p1163
I15880374
sS'trees'
p1164
I24766062
sS'furnaces'
p1165
I1051412
sS'longest'
p1166
I2462552
sS'during'
p1167
I126137445
sS'silk'
p1168
I5858709
sS'him'
p1169
I498867416
sS'molten'
p1170
I1103070
sS'spikes'
p1171
I1015585
sS'gloves'
p1172
I2349986
sS'rumored'
p1173
I411008
sS'bars'
p1174
I6014633
sS'set'
p1175
I109529264
sS'art'
p1176
I43646570
sS'throwing'
p1177
I4436716
sS'arrives'
p1178
I2329130
sS'culture'
p1179
I31547192
sS'see'
p1180
I255652906
sS'are'
p1181
I1317359256
sS'sea'
p1182
I34329194
sS'close'
p1183
I52619925
sS'arm'
p1184
I22603583
sS'barn'
p1185
I3161214
sS'currently'
p1186
I7105165
sS'fans'
p1187
I2705934
sS'won'
p1188
I14400151
sS'various'
p1189
I61631730
sS'probably'
p1190
I53415460
sS'available'
p1191
I50526536
sS'recently'
p1192
I17123791
sS'sold'
p1193
I19412648
sS'incident'
p1194
I9081472
sS'invisible'
p1195
I4550127
sS'bronze'
p1196
I3201443
sS'abruptly'
p1197
I3113129
sS'both'
p1198
I172619255
sS'last'
p1199
I115557335
sS'annual'
p1200
I15927690
sS'stoplight'
p1201
I47697
sS'load'
p1202
I13436847
sS'point'
p1203
I115280727
sS'sky'
p1204
I14357215
sS'community'
p1205
I45487929
sS'likes'
p1206
I3950605
sS'church'
p1207
I45134870
sS'steels'
p1208
I820920
sS'throughout'
p1209
I30281360
sS'expensive'
p1210
I8556241
sS'decline'
p1211
I9433706
sS'described'
p1212
I43834932
sS'whom'
p1213
I61554365
sS'describes'
p1214
I10069432
sS'collected'
p1215
I11569871
sS'brick'
p1216
I5153480
sS'empty'
p1217
I13268383
sS'assorted'
p1218
I656700
sS'fire'
p1219
I41961516
sS'gas'
p1220
I22548280
sS'kramers'
p1221
I117
sS'lives'
p1222
I31369461
sS'disruptive'
p1223
I888735
sS'hardness'
p1224
I1733819
sS'fur'
p1225
I5452623
sS'look'
p1226
I77038804
sS'grainy'
p1227
I124367
sS'governor'
p1228
I10134208
sS'rope'
p1229
I4964345
sS'while'
p1230
I144120495
sS'replaced'
p1231
I10772649
sS'pressed'
p1232
I8452854
sS'error'
p1233
I19608978
sS'fun'
p1234
I8803634
sS'century'
p1235
I58431027
sS'steelmaking'
p1236
I49769
sS'lodged'
p1237
I1458493
sS'ready'
p1238
I31785348
sS'truncheon'
p1239
I51994
sS'shirt'
p1240
I6273731
sS'lengths'
p1241
I3458221
sS'butcher'
p1242
I1153911
sS'virtually'
p1243
I7901286
sS'badgering'
p1244
I57345
sS'conflict'
p1245
I18723657
sS'higher'
p1246
I47063574
sS'development'
p1247
I69606597
sS'strips'
p1248
I2906347
sS'alert'
p1249
I3704037
sS'essences'
p1250
I382490
sS'moment'
p1251
I55086499
sS'levels'
p1252
I29164529
sS'arrived'
p1253
I21791505
sS'aggregate'
p1254
I4482233
sS'nickname'
p1255
I953297
sS'residents'
p1256
I6878635
sS'recent'
p1257
I26677458
sS'recognized'
p1258
I20426926
sS'obviously'
p1259
I10054778
sS'edge'
p1260
I18786267
sS'chemistry'
p1261
I4123570
sS'pyrometer'
p1262
I74048
sS'shape'
p1263
I20270982
sS'using'
p1264
I62112299
sS'sidebar'
p1265
I167155
sS'letting'
p1266
I4897878
sS'cut'
p1267
I38873915
sS'workers'
p1268
I29558306
sS'jostle'
p1269
I99252
sS'deliberately'
p1270
I4288030
sS'remaining'
p1271
I14959659
sS'emergency'
p1272
I7025403
sS'game'
p1273
I23121968
sS'hallucinations'
p1274
I822604
sS'ecosystems'
p1275
I762290
sS'bit'
p1276
I22971616
sS'projects'
p1277
I12368405
sS'shaped'
p1278
I10502305
sS'continue'
p1279
I24945015
sS'yields'
p1280
I5831329
sS'popular'
p1281
I26185326
sS'mcgraw'
p1282
I1552
sS'methods'
p1283
I33865257
sS'brakes'
p1284
I1003426
sS'spring'
p1285
I21342229
sS'fathers'
p1286
I6539597
sS'some'
p1287
I371139759
sS'back'
p1288
I176163324
sS'trends'
p1289
I4803307
sS'added'
p1290
I39273630
sS'sight'
p1291
I21674395
sS'oscillations'
p1292
I1006682
sS'accomplishment'
p1293
I2391192
sS'pale'
p1294
I10225029
sS'discarded'
p1295
I2068279
sS'gradually'
p1296
I12837821
sS'ps3coder'
p1297
I0
sS'simmers'
p1298
I25013
sS'per'
p1299
I93332024
sS'connecting'
p1300
I3852955
sS'eliminate'
p1301
I5327411
sS'tends'
p1302
I7598108
sS'epic'
p1303
I2314701
sS'either'
p1304
I80565277
sS'be'
p1305
I1705340858
sS'dehydrate'
p1306
I44952
sS'run'
p1307
I41604021
sS'idealistic'
p1308
I795934
sS'performed'
p1309
I18771651
sS'aloft'
p1310
I1037183
sS'nowhere'
p1311
I4059778
sS'intense'
p1312
I8774568
sS'anything'
p1313
I51334201
sS'most'
p1314
I282114436
sS'soft'
p1315
I18118144
sS'piled'
p1316
I1940988
sS'range'
p1317
I37372734
sS'360s'
p1318
I5945
sS'into'
p1319
I432663977
sS'within'
p1320
I109645252
sS'nonsense'
p1321
I2681032
sS'richtigs'
p1322
I0
sS'eleven'
p1323
I6729129
sS'jameson'
p1324
I1003
sS'fast'
p1325
I19198056
sS'custom'
p1326
I9097418
sS'manufacture'
p1327
I5775272
sS'himself'
p1328
I117443218
sS'hoped'
p1329
I10342334
sS'link'
p1330
I9078566
sS'reef'
p1331
I1217744
sS'line'
p1332
I87055761
sS'up'
p1333
I391044070
sS'us'
p1334
I205353298
sS'preindustrial'
p1335
I129420
sS'strandings'
p1336
I8355
sS'called'
p1337
I127276604
sS'ordered'
p1338
I17537192
sS'entrance'
p1339
I9864840
sS'single'
p1340
I56610567
sS'unwise'
p1341
I1018441
sS'decapitations'
p1342
I4956
sS'occasional'
p1343
I6416725
sS'swath'
p1344
I181053
sS'forge'
p1345
I976206
sS'aprons'
p1346
I262768
sS'manhattan'
p1347
I5088
sS'elements'
p1348
I31361610
sS'luxurious'
p1349
I1276798
sS'meaning'
p1350
I34125324
sS'ago'
p1351
I29725652
sS'dvd'
p1352
I10392
sS'walked'
p1353
I21198979
sS'2002'
p1354
I12181945
sS'2003'
p1355
I11070836
sS'2001'
p1356
I13105416
sS'attaining'
p1357
I1285357
sS'2005'
p1358
I7943462
sS'having'
p1359
I83355269
sS'once'
p1360
I86535905
sS'code'
p1361
I15991824
sS'melts'
p1362
I848376
sS'illustrated'
p1363
I10049875
sS'go'
p1364
I134429432
sS'seemed'
p1365
I57066214
sS'metallurgy'
p1366
I294332
sS'oclock'
p1367
I49129
sS'include'
p1368
I41478379
sS'continued'
p1369
I43376196
sS'severely'
p1370
I4662352
sS'button'
p1371
I8143897
sS'noted'
p1372
I26077738
sS'hardening'
p1373
I994528
sS'sensation'
p1374
I5332900
sS'video'
p1375
I6156727
sS'picked'
p1376
I10771642
sS'elise'
p1377
I3404
sS'acid'
p1378
I34224218
sS'folk'
p1379
I5937036
sS'power'
p1380
I120316478
sS'cell'
p1381
I32715481
sS'experiment'
p1382
I12183574
sS'nicholas'
p1383
I3756
sS'led'
p1384
I36226333
sS'degree'
p1385
I37796807
sS'exchange'
p1386
I19752732
sS'commercial'
p1387
I17810423
sS'believed'
p1388
I24112106
sS'let'
p1389
I70309792
sS'fifteen'
p1390
I12333004
sS'great'
p1391
I175795898
sS'30'
p1392
I60306091
sS'metre'
p1393
I686706
sS'bladesmith'
p1394
I521
sS'leaving'
p1395
I21278581
sS'popcorn'
p1396
I419484
sS'climb'
p1397
I4143692
sS'makes'
p1398
I46892647
sS'thats'
p1399
I76586
sS'win'
p1400
I10636943
sS'nantucket'
p1401
I473
sS'privately'
p1402
I2600608
sS'ninth'
p1403
I2977353
sS'tools'
p1404
I11917544
sS'standing'
p1405
I24282243
sS'use'
p1406
I183144314
sS'from'
p1407
I1212197788
sS'consumption'
p1408
I9862446
sS'remains'
p1409
I24742775
sS'next'
p1410
I79838443
sS'few'
p1411
I119152389
sS'sort'
p1412
I28918303
sS'popped'
p1413
I1032068
sS'journalists'
p1414
I1843871
sS'started'
p1415
I32282495
sS'detects'
p1416
I407799
sS'this'
p1417
I1024399171
sS'assumptions'
p1418
I6540531
sS'thin'
p1419
I16038020
sS'of'
p1420
I10806529050
sS'closing'
p1421
I6746031
sS'didnt'
p1422
I90
sS'spyder'
p1423
I1315
sS'bend'
p1424
I3495800
sS'control'
p1425
I77492036
sS'slid'
p1426
I2744357
sS'do'
p1427
I425981960
sS'lock'
p1428
I4347037
sS'high'
p1429
I123270392
sS'weve'
p1430
I6511
sS'something'
p1431
I89277244
sS'rods'
p1432
I2783379
sS'united'
p1433
I7448109
sS'sit'
p1434
I16620932
sS'six'
p1435
I49736754
sS'regions'
p1436
I13589886
sS'animal'
p1437
I21616314
sS'instead'
p1438
I32660820
sS'mysteries'
p1439
I2371562
sS'blocks'
p1440
I7724417
sS'watch'
p1441
I17008766
sS'realized'
p1442
I15353229
sS'lines'
p1443
I42993403
sS'manganese'
p1444
I1325637
sS'chief'
p1445
I27030739
sS'alloy'
p1446
I2050904
sS'lined'
p1447
I4324634
sS'unsolved'
p1448
I414520
sS'holds'
p1449
I11737694
sS'rutted'
p1450
I131711
sS'including'
p1451
I53725719
sS'looks'
p1452
I17432323
sS'brittle'
p1453
I1212661
sS'la'
p1454
I35845729
sS'acres'
p1455
I8956070
sS'degrees'
p1456
I12841325
sS'orange'
p1457
I6113533
sS'covered'
p1458
I25650084
sS'spreading'
p1459
I4517489
sS'fourth'
p1460
I16042819
sS'auto'
p1461
I2406553
sS'practice'
p1462
I42612765
sS'cutting'
p1463
I9408692
sS'legendary'
p1464
I1512709
sS'front'
p1465
I43825638
sS'day'
p1466
I177565212
sS'masters'
p1467
I5447961
sS'frayed'
p1468
I337846
sS'hallmarks'
p1469
I193616
sS'unpredictable'
p1470
I1258255
sS'truth'
p1471
I41391419
sS'beneath'
p1472
I13877282
sS'mets'
p1473
I19917
sS'doing'
p1474
I43305416
sS'pantry'
p1475
I486168
sS'society'
p1476
I46874947
sS'our'
p1477
I305508692
sS'special'
p1478
I52117816
sS'out'
p1479
I417608395
sS'occupied'
p1480
I12388258
sS'exporting'
p1481
I714141
sS'cause'
p1482
I57394610
sS'red'
p1483
I39001354
sS'achievements'
p1484
I3248717
sS'frank'
p1485
I1890303
sS'loomed'
p1486
I721005
sS'york'
p1487
I107542
sS'improvisational'
p1488
I84926
sS'early'
p1489
I83123317
sS'receipts'
p1490
I2539305
sS'mainland'
p1491
I1980648
sS'recipes'
p1492
I1190964
sS'times'
p1493
I79526351
sS'south'
p1494
I22378566
sS'mad'
p1495
I6570566
sS'reaches'
p1496
I6157864
sS'such'
p1497
I350206808
sS'reached'
p1498
I34560948
sS'tinkering'
p1499
I182636
sS'myspace'
p1500
I855
sS'system'
p1501
I129453118
sS'their'
p1502
I732699200
sS'wrapped'
p1503
I4682784
sS'stars'
p1504
I11678895
sS'exactly'
p1505
I20566476
sS'overwhelming'
p1506
I3766273
sS'steel'
p1507
I14538164
sS'colleagues'
p1508
I6598027
sS'lamborghini'
p1509
I0
sS'samsingers'
p1510
I0
sS'flashed'
p1511
I2196485
sS'bee'
p1512
I2277105
sS'boyish'
p1513
I646436
sS'splatter'
p1514
I59918
sS'horrors'
p1515
I1450520
sS'unlikely'
p1516
I5272234
sS'have'
p1517
I1018751481
sS'crank'
p1518
I958421
sS'drownings'
p1519
I28762
sS'beefy'
p1520
I92970
sS'apparently'
p1521
I17170578
sS'clearly'
p1522
I29138298
sS'soak'
p1523
I665756
sS'bleached'
p1524
I487534
sS'which'
p1525
I1035522237
sS'blades'
p1526
I2231666
sS'fuels'
p1527
I1245155
sS'rolaids'
p1528
I0
sS'who'
p1529
I532157112
sS'bleszinskis'
p1530
I0
sS'combustion'
p1531
I2569942
sS'eight'
p1532
I28782169
sS'vise'
p1533
I307300
sS'device'
p1534
I12282235
sS'awe'
p1535
I2425427
sS'why'
p1536
I56621338
sS'consequences'
p1537
I13261273
sS'face'
p1538
I80687050
sS'looked'
p1539
I65263035
sS'scrambled'
p1540
I1046543
sS'normally'
p1541
I9334156
sS'fact'
p1542
I103592297
sS'atmosphere'
p1543
I11597188
sS'selection'
p1544
I14968699
sS'karyn'
p1545
I80
sS'metallurgists'
p1546
I37789
sS'terminate'
p1547
I2106272
sS'anyway'
p1548
I6896113
sS'planning'
p1549
I18573689
sS'fear'
p1550
I31896241
sS'decade'
p1551
I7988831
sS'staff'
p1552
I22222404
sS'sheriff'
p1553
I2741507
sS'with'
p1554
I1896990934
sS'should'
p1555
I285576139
sS'surroundings'
p1556
I3275798
sS'employee'
p1557
I10942671
sS'local'
p1558
I53442145
sS'exchanged'
p1559
I3219693
sS'slows'
p1560
I514011
sS'handle'
p1561
I11027956
sS'listened'
p1562
I6835774
sS'watching'
p1563
I11456274
sS'beat'
p1564
I9984733
sS'ones'
p1565
I25801361
sS'perfection'
p1566
I5135289
sS'werent'
p1567
I6219
sS'areas'
p1568
I39378139
sS'gray'
p1569
I12183386
sS'shy'
p1570
I2428177
sS'she'
p1571
I465531063
sS'wish'
p1572
I28497345
sS'national'
p1573
I42935374
sS'wire'
p1574
I10341242
sS'outrageousness'
p1575
I18409
sS'blaster'
p1576
I58000
sS'state'
p1577
I129419648
sS'fifties'
p1578
I1105901
sS'closed'
p1579
I24233813
sS'neither'
p1580
I27553962
sS'ends'
p1581
I16353321
sS'bed'
p1582
I32101811
sS'job'
p1583
I35395114
sS'ripleys'
p1584
I0
sS'ramp'
p1585
I959575
sS'etc'
p1586
I1929981
sS'wall'
p1587
I28905082
sS'laugh'
p1588
I8864122
sS'table'
p1589
I46453991
sS'withdrawn'
p1590
I3380175
sS'copies'
p1591
I7904726
sS'cent'
p1592
I33449912
sS'upbeat'
p1593
I233382
sS'recounts'
p1594
I522335
sS'nickel'
p1595
I2232341
sS'finished'
p1596
I16417581
sS'smoking'
p1597
I5243849
sS'atmospheric'
p1598
I2641202
sS'value'
p1599
I84905331
sS'will'
p1600
I560017880
sS'supply'
p1601
I25802147
sS'ringing'
p1602
I2081410
sS'almost'
p1603
I79464597
sS'surprisingly'
p1604
I2872038
sS'helped'
p1605
I15772851
sS'counterweight'
p1606
I146648
sS'blacksmithing'
p1607
I45801
sS'claimed'
p1608
I11712248
sS'sits'
p1609
I3775201
sS'pit'
p1610
I3688360
sS'began'
p1611
I66156037
sS'parts'
p1612
I44475653
sS'inch'
p1613
I14252132
sS'wakeup'
p1614
I20752
sS'difficult'
p1615
I43868317
sS'injured'
p1616
I5551949
sS'conflicting'
p1617
I2888520
sS'caesar'
p1618
I21117
sS'cubic'
p1619
I3602413
sS'upon'
p1620
I196773282
sS'nightly'
p1621
I914876
sS'student'
p1622
I27957538
sS'frequently'
p1623
I28239044
sS'lobby'
p1624
I2215748
sS'warming'
p1625
I1551519
sS'off'
p1626
I125455434
sS'center'
p1627
I30547607
sS'i'
p1628
I54024443
sS'knifeness'
p1629
I0
sS'well'
p1630
I224698448
sS'fighting'
p1631
I11992822
sS'thought'
p1632
I116942212
sS'patterns'
p1633
I16498500
sS'sets'
p1634
I14297172
sS'kramer'
p1635
I1933
sS'half'
p1636
I75560865
sS'detail'
p1637
I15804490
sS'sources'
p1638
I21610418
sS'roomy'
p1639
I220204
sS'rapid'
p1640
I14134805
sS'console'
p1641
I1452857
sS'bell'
p1642
I5720140
sS'smith'
p1643
I438549
sS'capabilities'
p1644
I3897945
sS'book'
p1645
I74783212
sS'crack'
p1646
I3954556
sS'match'
p1647
I8580356
sS'tests'
p1648
I17815937
sS'taunt'
p1649
I298065
sS'february'
p1650
I16831
sS'five'
p1651
I74183125
sS'whatever'
p1652
I24719809
sS'immediately'
p1653
I31320769
sS'necessary'
p1654
I69840942
sS'like'
p1655
I280419611
sS'clown'
p1656
I831436
sS'roth'
p1657
I18752
sS'bulgy'
p1658
I12016
sS'refugees'
p1659
I2562909
sS'page'
p1660
I35782898
sS'backlog'
p1661
I210446
sS'because'
p1662
I202535883
sS'elevators'
p1663
I668490
sS'underwent'
p1664
I1291171
sS'alive'
p1665
I12081864
sS'hair'
p1666
I29483111
sS'growth'
p1667
I41089767
sS'ablaze'
p1668
I284314
sS'empire'
p1669
I7618845
sS'blade'
p1670
I4068801
sS'happens'
p1671
I10619810
sS'jeremy'
p1672
I3413
sS'broad'
p1673
I18625176
sS'grinding'
p1674
I1949449
sS'does'
p1675
I151522426
sS'glacial'
p1676
I1134743
sS'slight'
p1677
I11481893
sS'goatee'
p1678
I95636
sS'paper'
p1679
I43282488
sS'pressure'
p1680
I41534953
sS'although'
p1681
I50096116
sS'panel'
p1682
I5888725
sS'about'
p1683
I408229976
sS'rare'
p1684
I13624463
sS'headed'
p1685
I9385872
sS'samsinger'
p1686
I0
sS'clooney'
p1687
I131
sS'introduced'
p1688
I19755926
sS'own'
p1689
I192505822
sS'h3'
p1690
I23139
sS'sharpness'
p1691
I532437
sS'antnio'
p1692
I0
sS'tiny'
p1693
I8718787
sS'fired'
p1694
I6597227
sS'dumbwaiters'
p1695
I4907
sS'housing'
p1696
I8958259
sS'north'
p1697
I24005448
sS'brand'
p1698
I4478604
sS'sequel'
p1699
I939624
sS'but'
p1700
I791724336
sS'strawberries'
p1701
I716062
sS'related'
p1702
I38694793
sS'squeeze'
p1703
I1513228
sS'he'
p1704
I1268667526
sS'made'
p1705
I270405778
sS'whether'
p1706
I76373844
sS'shrunk'
p1707
I625039
sS'j'
p1708
I10032856
sS'below'
p1709
I43103765
sS'stories'
p1710
I18635541
sS'piece'
p1711
I24686567
sS'minutes'
p1712
I34109794
sS'universal'
p1713
I12979857
sS'beetle'
p1714
I821544
sS'replica'
p1715
I609104
sS'trailing'
p1716
I1191506
sS'jenna'
p1717
I685
sS'variety'
p1718
I25332313
sS'forests'
p1719
I5322336
sS'scholarly'
p1720
I2572795
sS'lately'
p1721
I4213014
sS'other'
p1722
I466117642
sS'acidification'
p1723
I142013
sS'francisco'
p1724
I14210
sS'monday'
p1725
I25308
sS'detractors'
p1726
I283605
sS'pumps'
p1727
I1803518
sS'nintendo'
p1728
I1197
sS'cliff'
p1729
I2204632
sS'lasted'
p1730
I4080416
sS'rural'
p1731
I10856734
sS'accidents'
p1732
I3382623
s.