(dp0
S'limited'
p1
I61210489
sS'todays'
p2
I91345
sS'womans'
p3
I54388
sS'powders'
p4
I1430724
sS'four'
p5
I233660907
sS'hanging'
p6
I13784144
sS'oldest'
p7
I10163448
sS'increase'
p8
I202120761
sS'electricity'
p9
I9493139
sS'lore'
p10
I2904513
sS'ontological'
p11
I1886456
sS'onstage'
p12
I763988
sS'worth'
p13
I74905897
sS'co2'
p14
I108403
sS'rise'
p15
I70740194
sS'smack'
p16
I2391542
sS'every'
p17
I429152421
sS'founded'
p18
I22728786
sS'school'
p19
I247087806
sS'baking'
p20
I5107060
sS'crops'
p21
I12455702
sS'samurai'
p22
I810519
sS'announced'
p23
I19450084
sS'disclose'
p24
I9112418
sS'estimates'
p25
I15048119
sS'horn'
p26
I15474360
sS'chef'
p27
I2360724
sS'surrounding'
p28
I25028567
sS'cary'
p29
I256775
sS'huffing'
p30
I121789
sS'7th'
p31
I6691244
sS'estimated'
p32
I24116853
sS'even'
p33
I631421877
sS'dangled'
p34
I649942
sS'microsofts'
p35
I0
sS'organisms'
p36
I11313918
sS'lights'
p37
I18102034
sS'above'
p38
I176465552
sS'new'
p39
I534592357
sS'ever'
p40
I606469010
sS'told'
p41
I152499654
sS'pumpkin'
p42
I1520197
sS'never'
p43
I308703288
sS'atoms'
p44
I12757378
sS'strewn'
p45
I1858809
sS'buckled'
p46
I686208
sS'alchemist'
p47
I612060
sS'study'
p48
I159477973
sS'smoke'
p49
I26423315
sS'stressed'
p50
I7164776
sS'changes'
p51
I100709767
sS'explained'
p52
I38212085
sS'county'
p53
I32696848
sS'ninety'
p54
I7312392
sS'jackets'
p55
I1704708
sS'counts'
p56
I7476432
sS'spoke'
p57
I70404436
sS'would'
p58
I1107108195
sS'blacksmiths'
p59
I357696
sS'call'
p60
I433280942
sS'calm'
p61
I25772430
sS'twirled'
p62
I382759
sS'tell'
p63
I184637437
sS'relax'
p64
I22396606
sS'43'
p65
I89660549
sS'wars'
p66
I14621754
sS'award'
p67
I19170225
sS'phone'
p68
I32669641
sS'adamant'
p69
I1580085
sS'companys'
p70
I22722
sS'me'
p71
I3551083085
sS'1990'
p72
I49327508
sS'room'
p73
I184091300
sS'1997'
p74
I32600584
sS'1999'
p75
I29714655
sS'work'
p76
I774399424
sS'plunged'
p77
I4170331
sS'roof'
p78
I24651200
sS'cliffycam'
p79
I0
sS'temperatures'
p80
I14388779
sS'brake'
p81
I5862242
sS'plunges'
p82
I596125
sS'my'
p83
I1035600471
sS'could'
p84
I682070322
sS'sensually'
p85
I88209
sS'give'
p86
I526297388
sS'household'
p87
I28875169
sS'organized'
p88
I33813815
sS'want'
p89
I321762195
sS'end'
p90
I402305605
sS'inhabitants'
p91
I18711830
sS'how'
p92
I610393750
sS'adjacent'
p93
I13035808
sS'answer'
p94
I149573178
sS'badly'
p95
I11644817
sS'oceans'
p96
I2562856
sS'ladder'
p97
I6998176
sS'after'
p98
I540085638
sS'demanding'
p99
I7764816
sS'wrong'
p100
I64202061
sS'attempt'
p101
I114550868
sS'third'
p102
I106337776
sS'sickening'
p103
I967264
sS'cigarettes'
p104
I3995653
sS'green'
p105
I63199437
sS'order'
p106
I312292526
sS'wind'
p107
I143249237
sS'office'
p108
I192578804
sS'over'
p109
I765478243
sS'oven'
p110
I8326219
sS'japan'
p111
I339144
sS'ticket'
p112
I12651986
sS'before'
p113
I439380237
sS'sonys'
p114
I1648
sS'smartbomb'
p115
I63
sS'chemistrys'
p116
I0
sS'better'
p117
I174210261
sS'production'
p118
I94154012
sS'then'
p119
I577251727
sS'them'
p120
I1108429428
sS'bladesmithing'
p121
I165
sS'widely'
p122
I27210777
sS'combination'
p123
I42483706
sS'break'
p124
I99266156
sS'band'
p125
I55421276
sS'owned'
p126
I22647951
sS'they'
p127
I1480746117
sS'blink'
p128
I5093015
sS'structural'
p129
I19668902
sS'meat'
p130
I26120219
sS'potatoes'
p131
I7900332
sS'debut'
p132
I2553930
sS'good'
p133
I447933960
sS'each'
p134
I413105684
sS'went'
p135
I190925466
sS'meal'
p136
I26220990
sS'mean'
p137
I437573987
sS'lifted'
p138
I16013175
sS'series'
p139
I76064734
sS'displacement'
p140
I9427863
sS'used'
p141
I377971772
sS'aids'
p142
I5367649
sS'borne'
p143
I11642229
sS'forty'
p144
I33162699
sS'laid'
p145
I41874222
sS'got'
p146
I162358344
sS'engineer'
p147
I35740177
sS'throwbacks'
p148
I26667
sS'threatened'
p149
I15547425
sS'free'
p150
I234167794
sS'standard'
p151
I107776069
sS'wanted'
p152
I91544639
sS'certified'
p153
I4134479
sS'shaggy'
p154
I1080833
sS'ritual'
p155
I17190350
sS'days'
p156
I177440153
sS'outfits'
p157
I916451
sS'silicon'
p158
I4814763
sS'shipped'
p159
I4953715
sS'signature'
p160
I9284947
sS'uses'
p161
I39408444
sS'rang'
p162
I106013285
sS'industrial'
p163
I44666106
sS'grade'
p164
I38404682
sS'hearing'
p165
I33569757
sS'floors'
p166
I5716185
sS'disappearing'
p167
I2383865
sS'another'
p168
I287702395
sS'thick'
p169
I58168425
sS'rated'
p170
I5394480
sS'service'
p171
I201255956
sS'top'
p172
I134151547
sS'elevator'
p173
I6017517
sS'2'
p174
I3471470302
sS'master'
p175
I71746658
sS'tom'
p176
I39373760
sS'farming'
p177
I8252364
sS'danish'
p178
I21264
sS'collapse'
p179
I13566011
sS'tool'
p180
I48052157
sS'villages'
p181
I12616855
sS'took'
p182
I179625980
sS'exhilarating'
p183
I909156
sS'peculiar'
p184
I30616978
sS'nations'
p185
I36558796
sS'seminars'
p186
I1863652
sS'iron'
p187
I61373536
sS'feeling'
p188
I108344987
sS'ran'
p189
I229088966
sS'boston'
p190
I68126
sS'modern'
p191
I84807786
sS'talking'
p192
I38260708
sS'manner'
p193
I93144450
sS'rotors'
p194
I330479
sS'relatively'
p195
I44552133
sS'forced'
p196
I39524798
sS'snow'
p197
I31987697
sS'causing'
p198
I15662259
sS'absorbed'
p199
I12530078
sS'doors'
p200
I21353866
sS'gallardo'
p201
I3983
sS'drought'
p202
I3606140
sS'bounced'
p203
I1497262
sS'episode'
p204
I12956666
sS'alarm'
p205
I18833980
sS'partition'
p206
I8929950
sS'metal'
p207
I53129258
sS'dog'
p208
I60563382
sS'came'
p209
I266393572
sS'visitor'
p210
I18599380
sS'gauge'
p211
I6810870
sS'playstation3'
p212
I0
sS'moniker'
p213
I163079
sS'wearing'
p214
I16771473
sS'plate'
p215
I55689401
sS'sunglasses'
p216
I861130
sS'fossil'
p217
I6809062
sS'stop'
p218
I111066591
sS'baffle'
p219
I2733787
sS'cushion'
p220
I4368658
sS'despite'
p221
I25735363
sS'earn'
p222
I57373573
sS'covering'
p223
I16936605
sS'fields'
p224
I38459537
sS'twice'
p225
I28367374
sS'gears'
p226
I2096294
sS'shots'
p227
I6406638
sS'quintessential'
p228
I691146
sS'respond'
p229
I51176249
sS'reference'
p230
I69794950
sS'decided'
p231
I58042696
sS'result'
p232
I301859443
sS'hammer'
p233
I8399301
sS'best'
p234
I192822671
sS'said'
p235
I697630871
sS'away'
p236
I208405577
sS'plummeting'
p237
I146394
sS'quadrillion'
p238
I62005
sS'360'
p239
I9944085
sS'preserve'
p240
I33659130
sS'adventuresome'
p241
I138639
sS'we'
p242
I4167647410
sS'rolled'
p243
I13715843
sS'weak'
p244
I68912391
sS'loading'
p245
I8476890
sS'carbon'
p246
I33176997
sS'kitchen'
p247
I25437407
sS'suggested'
p248
I47319272
sS'climate'
p249
I18186900
sS'country'
p250
I189724805
sS'games'
p251
I17795580
sS'asked'
p252
I150399397
sS'pre'
p253
I1712572887
sS'tough'
p254
I12966032
sS'snakeskin'
p255
I65488
sS'incessant'
p256
I3796733
sS'tons'
p257
I16290930
sS'wider'
p258
I11599819
sS'speak'
p259
I144401573
sS'conference'
p260
I25533813
sS'trapdoor'
p261
I249061
sS'ropes'
p262
I3138502
sS'three'
p263
I335074777
sS'been'
p264
I1136942969
sS'quickly'
p265
I55170548
sS'beep'
p266
I824151
sS'much'
p267
I435153848
sS'replicate'
p268
I2574304
sS'basic'
p269
I66088167
sS'expected'
p270
I65976714
sS'parents'
p271
I71254723
sS'acuity'
p272
I1242140
sS'containers'
p273
I3935942
sS'life'
p274
I447064333
sS'darfur'
p275
I565
sS'hoist'
p276
I2981968
sS'worked'
p277
I54780906
sS'air'
p278
I177333717
sS'near'
p279
I226854561
sS'aural'
p280
I668519
sS'voice'
p281
I113461683
sS'launched'
p282
I7851479
sS'cavern'
p283
I3544113
sS'seven'
p284
I98551095
sS'played'
p285
I39021990
sS'is'
p286
I6275628905
sS'it'
p287
I4525575208
sS'experts'
p288
I10989452
sS'in'
p289
I17810003216
sS'spending'
p290
I14413423
sS'seattle'
p291
I8936
sS'id'
p292
I429950465
sS'if'
p293
I825973990
sS'grown'
p294
I29346192
sS'confirmed'
p295
I15748757
sS'descent'
p296
I9107292
sS'things'
p297
I204798545
sS'make'
p298
I497853522
sS'polaroid'
p299
I41215
sS'ordinariness'
p300
I104104
sS'belly'
p301
I6385281
sS'plates'
p302
I16428835
sS'several'
p303
I177337272
sS'harming'
p304
I562826
sS'wheel'
p305
I31107311
sS'_START_s'
p306
I0
sS'_START_t'
p307
I0
sS'_START_u'
p308
I0
sS'outperformed'
p309
I159568
sS'hand'
p310
I483574138
sS'earlobes'
p311
I95532
sS'insisted'
p312
I15804213
sS'thoughts'
p313
I37920758
sS'kid'
p314
I46215384
sS'butter'
p315
I20522363
sS'1975'
p316
I32819115
sS'1972'
p317
I31299368
sS'ocean'
p318
I22339462
sS'mother'
p319
I159330567
sS'hearts'
p320
I20493127
sS'the'
p321
I40744498410
sS'corporate'
p322
I19800769
sS'left'
p323
I238306210
sS'seasonal'
p324
I5291743
sS'just'
p325
I441716433
sS'grades'
p326
I10455709
sS'thanks'
p327
I17411023
sS'human'
p328
I217357073
sS'yes'
p329
I36798021
sS'scattering'
p330
I6273205
sS'yet'
p331
I173143026
sS'impending'
p332
I3209691
sS'eli'
p333
I61714818
sS'terrazzo'
p334
I83282
sS'expos'
p335
I65119727
sS'ease'
p336
I22433764
sS'had'
p337
I2010158890
sS'has'
p338
I1172410813
sS'gave'
p339
I122476627
sS'bayonet'
p340
I2306799
sS'melting'
p341
I6457813
sS'intercom'
p342
I1168000
sS'possibly'
p343
I29812669
sS'descending'
p344
I5309291
sS'birth'
p345
I53745216
sS'designers'
p346
I3591037
sS'brought'
p347
I124098064
sS'cooler'
p348
I2987407
sS'xbox'
p349
I577
sS'offices'
p350
I18403887
sS'night'
p351
I176767182
sS'right'
p352
I414961737
sS'old'
p353
I337790378
sS'stereotype'
p354
I5738239
sS'people'
p355
I458678055
sS'somehow'
p356
I15292182
sS'born'
p357
I95950611
sS'humor'
p358
I17130357
sS'for'
p359
I5975805851
sS'bottom'
p360
I44101739
sS'ice'
p361
I31994134
sS'contributing'
p362
I5592222
sS'asking'
p363
I23926202
sS'beating'
p364
I8249817
sS'christmas'
p365
I23095
sS'dolce'
p366
I210177
sS'corn'
p367
I72798468
sS'burn'
p368
I60663499
sS'diner'
p369
I1453232
sS'dollars'
p370
I37814466
sS'months'
p371
I88266778
sS'magazine'
p372
I23577730
sS'plus'
p373
I27249347
sS'islands'
p374
I14655254
sS'slightly'
p375
I38398266
sS'whats'
p376
I6381935
sS'down'
p377
I400199265
sS'entrepreneur'
p378
I6856734
sS'magazines'
p379
I8560145
sS'often'
p380
I230946158
sS'constantly'
p381
I23680777
sS'stuck'
p382
I10565632
sS'way'
p383
I506862095
sS'was'
p384
I4226092453
sS'war'
p385
I350266278
sS'form'
p386
I665520168
sS'offer'
p387
I150798287
sS'landing'
p388
I11292695
sS'heat'
p389
I91895241
sS'_END_'
p390
I85
sS'removed'
p391
I43234493
sS'braves'
p392
I1458777
sS'inside'
p393
I57711422
sS'attached'
p394
I27400024
sS'maximum'
p395
I35275883
sS'until'
p396
I207165009
sS'stages'
p397
I22397246
sS'trim'
p398
I11264639
sS'later'
p399
I198163270
sS'forearm'
p400
I2931953
sS'sometime'
p401
I104876055
sS'fashioned'
p402
I7322738
sS'chuckling'
p403
I578019
sS'eventual'
p404
I30745863
sS'no'
p405
I6208212228
sS'when'
p406
I921939273
sS'interested'
p407
I38568084
sS'papers'
p408
I30590971
sS'test'
p409
I205457090
sS'developers'
p410
I2839082
sS'smell'
p411
I21144541
sS'brothers'
p412
I20440414
sS'felt'
p413
I122478842
sS'fell'
p414
I103951001
sS'cleaver'
p415
I208568
sS'died'
p416
I77543032
sS'billion'
p417
I18999834
sS'longer'
p418
I93193427
sS'bestowed'
p419
I4444157
sS'home'
p420
I248782784
sS'salt'
p421
I41160912
sS'together'
p422
I149852451
sS'jacket'
p423
I9673112
sS'time'
p424
I1017944754
sS'conferred'
p425
I5212634
sS'neighbors'
p426
I12987068
sS'chain'
p427
I38065965
sS'switched'
p428
I3800536
sS'global'
p429
I21814287
sS'manager'
p430
I44726588
sS'supplement'
p431
I19139034
sS'bomber'
p432
I3518820
sS'supposedly'
p433
I4301509
sS'factories'
p434
I7559700
sS'depend'
p435
I129483204
sS'nineteen'
p436
I25560995
sS'father'
p437
I159855440
sS'editors'
p438
I8692542
sS'1945'
p439
I16599314
sS'finally'
p440
I60251046
sS'fog'
p441
I7322455
sS'permanently'
p442
I6762517
sS'shoot'
p443
I25026898
sS'keeping'
p444
I29931881
sS'seemingly'
p445
I8445452
sS'trouble'
p446
I62244334
sS'cool'
p447
I41954665
sS'cooks'
p448
I1878509
sS'staples'
p449
I891119
sS'did'
p450
I559941665
sS'brother'
p451
I84298710
sS'culminating'
p452
I1577183
sS'settle'
p453
I85856002
sS'quick'
p454
I90176918
sS'guy'
p455
I25158546
sS'moussed'
p456
I6124
sS'shave'
p457
I4050724
sS'plummet'
p458
I875971
sS'says'
p459
I115935470
sS'nineties'
p460
I922236
sS'porn'
p461
I2950652
sS'bleszinski'
p462
I0
sS'slowed'
p463
I3367143
sS'cost'
p464
I171335103
sS'chopping'
p465
I982304
sS'shirts'
p466
I3984905
sS'forging'
p467
I1457689
sS'endangering'
p468
I618726
sS'peacockish'
p469
I499
sS'appear'
p470
I276503213
sS'entrapment'
p471
I598998
sS'melt'
p472
I18412154
sS'current'
p473
I110377154
sS'annals'
p474
I1921827
sS'international'
p475
I50334095
sS'falling'
p476
I20666901
sS'hummer'
p477
I54767
sS'supporting'
p478
I14402215
sS'transportation'
p479
I17642383
sS'water'
p480
I289840633
sS'contemplate'
p481
I8557274
sS'alone'
p482
I96877959
sS'along'
p483
I148596603
sS'change'
p484
I321363838
sS'box'
p485
I62763686
sS'passengers'
p486
I8881431
sS'thirty'
p487
I47837636
sS'dusty'
p488
I3341219
sS'shooter'
p489
I1173241
sS'bangs'
p490
I431112
sS'bob'
p491
I3725777
sS'nylon'
p492
I1578397
sS'studies'
p493
I76359477
sS'pillow'
p494
I6909515
sS'stubbed'
p495
I163517
sS'tasks'
p496
I19398596
sS'love'
p497
I254433422
sS'merely'
p498
I57726338
sS'marked'
p499
I44701940
sS'flexibility'
p500
I7666970
sS'market'
p501
I125320947
sS'working'
p502
I94820164
sS'visit'
p503
I107096721
sS'by'
p504
I3190956662
sS'unadorned'
p505
I424178
sS'opposed'
p506
I24493644
sS'gabbana'
p507
I0
sS'today'
p508
I64925568
sS'itineraries'
p509
I240142
sS'rainfall'
p510
I3694487
sS'commissioner'
p511
I9321353
sS'apparent'
p512
I66136497
sS'downtown'
p513
I5719516
sS'fuel'
p514
I22347540
sS'visual'
p515
I29247452
sS'everywhere'
p516
I19874893
sS'car'
p517
I767881140
sS'cap'
p518
I316240723
sS'soul'
p519
I77190804
sS'can'
p520
I1398272071
sS'growing'
p521
I47596272
sS'cab'
p522
I50395172
sS'arrive'
p523
I62454359
sS'thicknesses'
p524
I959513
sS'meant'
p525
I53989953
sS'performer'
p526
I5733721
sS'predict'
p527
I43429790
sS'amalgams'
p528
I108578
sS'dropped'
p529
I25093719
sS'allowed'
p530
I57416014
sS'occur'
p531
I166247768
sS'cowlicked'
p532
I1470
sS'following'
p533
I194314108
sS'exceptional'
p534
I10395745
sS'dinner'
p535
I34323549
sS'gamers'
p536
I73829
sS'skater'
p537
I497152
sS'map'
p538
I46340321
sS'paramount'
p539
I2955781
sS'may'
p540
I898939020
sS'eighty'
p541
I9843787
sS'crashed'
p542
I2146906
sS'produce'
p543
I173943084
sS'designed'
p544
I44136163
sS'drastic'
p545
I4939513
sS'revealed'
p546
I23801602
sS'grow'
p547
I214878193
sS'man'
p548
I1456773209
sS'natural'
p549
I133504146
sS'whenever'
p550
I19261116
sS'provide'
p551
I243158802
sS'accelerated'
p552
I4505270
sS'so'
p553
I4116119314
sS'stylings'
p554
I24136
sS'tall'
p555
I29133580
sS'fireball'
p556
I309633
sS'pulled'
p557
I29714481
sS'serving'
p558
I20092738
sS'shoes'
p559
I15596401
sS'haircut'
p560
I776690
sS'years'
p561
I406886656
sS'cuts'
p562
I9168420
sS'argued'
p563
I21420789
sS'cold'
p564
I69062321
sS'still'
p565
I296543901
sS'jock'
p566
I1576926
sS'tore'
p567
I4744097
sS'forms'
p568
I89658098
sS'farmer'
p569
I31081878
sS'main'
p570
I216567294
sS'decades'
p571
I15795750
sS'happened'
p572
I50094160
sS'non'
p573
I228579103
sS'qualifies'
p574
I1140835
sS'matches'
p575
I4585949
sS'cowering'
p576
I357396
sS'slacks'
p577
I814386
sS'wealthy'
p578
I9537058
sS'not'
p579
I3971111595
sS'now'
p580
I458808597
sS'killed'
p581
I41258007
sS'nor'
p582
I323733061
sS'matched'
p583
I6043982
sS'wagon'
p584
I13566377
sS'name'
p585
I312727336
sS'rendering'
p586
I6742083
sS'corners'
p587
I9298289
sS'scolded'
p588
I1055867
sS'quarter'
p589
I45547193
sS'square'
p590
I55063037
sS'significantly'
p591
I18548545
sS'bursting'
p592
I2833192
sS'challenges'
p593
I9876952
sS'tranbergs'
p594
I0
sS'fires'
p595
I10062812
sS'year'
p596
I678464591
sS'worried'
p597
I10772973
sS'canada'
p598
I33664
sS'accomplish'
p599
I46092855
sS'opened'
p600
I52767329
sS'looking'
p601
I84155560
sS'dioxide'
p602
I7803975
sS'shows'
p603
I78528799
sS'earlier'
p604
I67385511
sS'cars'
p605
I19457500
sS'million'
p606
I79228291
sS'pumping'
p607
I3093634
sS'quite'
p608
I120822720
sS'complicated'
p609
I16894193
sS'marine'
p610
I11125074
sS'seventy'
p611
I12728387
sS'advance'
p612
I77896626
sS'waiter'
p613
I4071342
sS'punk'
p614
I1140087
sS'turn'
p615
I276804599
sS'place'
p616
I435967582
sS'aboard'
p617
I6558989
sS'blacksmith'
p618
I2264658
sS'think'
p619
I323018122
sS'waited'
p620
I18723141
sS'first'
p621
I616475368
sS'one'
p622
I1523760528
sS'long'
p623
I489869175
sS'drove'
p624
I18982566
sS'open'
p625
I250738432
sS'size'
p626
I105721549
sS'city'
p627
I134419021
sS'little'
p628
I342402375
sS'personalities'
p629
I4484651
sS'caught'
p630
I35066530
sS'trillion'
p631
I1209412
sS't'
p632
I78477373021
sS'traction'
p633
I2092156
sS'twenties'
p634
I2819942
sS'terrifying'
p635
I2337917
sS'white'
p636
I166145402
sS'cliffyb'
p637
I0
sS'mining'
p638
I10931770
sS'hug'
p639
I32717305
sS'that'
p640
I5762285319
sS'continuous'
p641
I33497682
sS'expanse'
p642
I2508871
sS'released'
p643
I17887311
sS'than'
p644
I916703141
sS'11'
p645
I436182797
sS'wide'
p646
I125990333
sS'television'
p647
I23898422
sS'crossroads'
p648
I1030653
sS'coats'
p649
I4373630
sS'knives'
p650
I3224728
sS'were'
p651
I1610023291
sS'janitor'
p652
I1074976
sS'and'
p653
I16347482127
sS'san'
p654
I102395602
sS'turned'
p655
I112329630
sS'say'
p656
I428198489
sS'insatiable'
p657
I1087151
sS'saw'
p658
I143661959
sS'sat'
p659
I183574402
sS'ideas'
p660
I62001142
sS'equipment'
p661
I42315158
sS'take'
p662
I510577649
sS'online'
p663
I9542808
sS'personalized'
p664
I1013390
sS'fashionably'
p665
I205714
sS'blunt'
p666
I5811933
sS'sure'
p667
I123093259
sS'altered'
p668
I12991691
sS'normal'
p669
I99034302
sS'buffer'
p670
I9041298
sS'neatly'
p671
I4327567
sS'visitors'
p672
I11329566
sS'assault'
p673
I13149277
sS'pair'
p674
I45548706
sS'america'
p675
I1492998
sS'especially'
p676
I118007509
sS'average'
p677
I75386805
sS'proud'
p678
I22997165
sS'drive'
p679
I92690755
sS'ferrari'
p680
I4913
sS'refining'
p681
I2116667
sS'subsequent'
p682
I41064542
sS'professional'
p683
I55001589
sS'typically'
p684
I18031981
sS'shop'
p685
I43101244
sS'rating'
p686
I12120341
sS'lotus'
p687
I1201548
sS'friction'
p688
I9082976
sS'fifty'
p689
I35425592
sS'bright'
p690
I47732019
sS'corner'
p691
I43086178
sS'fifth'
p692
I21248098
sS'geography'
p693
I5512512
sS'title'
p694
I59250261
sS'jolt'
p695
I1813783
sS'sloop'
p696
I1455706
sS'only'
p697
I771647579
sS'black'
p698
I144903754
sS'carolina'
p699
I49692
sS'narrows'
p700
I700222
sS'get'
p701
I359831094
sS'soon'
p702
I126924892
sS'cannot'
p703
I96774
sS'nearly'
p704
I71746778
sS'gee'
p705
I2885650
sS'awaiting'
p706
I4151548
sS'reveal'
p707
I57636597
sS'leather'
p708
I12678557
sS'seldom'
p709
I16808601
sS'yield'
p710
I49477116
sS'morning'
p711
I91859019
sS'craftsmanship'
p712
I784455
sS'miles'
p713
I75939194
sS'uncover'
p714
I6213174
sS'where'
p715
I527623415
sS'husband'
p716
I69274047
sS'professes'
p717
I806309
sS'molelike'
p718
I5329
sS'guterres'
p719
I0
sS'parking'
p720
I7767486
sS'connected'
p721
I37173031
sS'farmers'
p722
I17448348
sS'ways'
p723
I81184694
sS'jumped'
p724
I9587530
sS'weapons'
p725
I17616843
sS'denmarks'
p726
I0
sS'behind'
p727
I94467768
sS'between'
p728
I471897898
sS'ruptured'
p729
I1045324
sS'oversized'
p730
I742009
sS'arrival'
p731
I20418951
sS'jobs'
p732
I23586365
sS'vertical'
p733
I24151437
sS'aversion'
p734
I2800634
sS'killing'
p735
I13546981
sS'article'
p736
I66464704
sS'come'
p737
I359037279
sS'many'
p738
I479335132
sS'according'
p739
I94795167
sS's'
p740
I32013355197
sS'aura'
p741
I3598551
sS'nearby'
p742
I12666894
sS'among'
p743
I211745398
sS'color'
p744
I113498907
sS'jeans'
p745
I3030028
sS'insist'
p746
I37485347
sS'capable'
p747
I30707654
sS'west'
p748
I70174049
sS'porsche'
p749
I989
sS'engine'
p750
I66845526
sS'educated'
p751
I14807855
sS'shortages'
p752
I1958179
sS'thousand'
p753
I91008685
sS'formed'
p754
I62172585
sS'observe'
p755
I101908045
sS'former'
p756
I83570453
sS'those'
p757
I463100349
sS'pilot'
p758
I15569598
sS'sound'
p759
I121564181
sS'shaft'
p760
I12150481
sS'stacked'
p761
I2189837
sS'washington'
p762
I59147
sS'these'
p763
I715998476
sS'variances'
p764
I1444114
sS'lookout'
p765
I1716635
sS'eventually'
p766
I26564997
sS'im'
p767
I1353071351
sS'thickly'
p768
I1989282
sS'middle'
p769
I68994615
sS'pressing'
p770
I9850912
sS'baths'
p771
I3350136
sS'affected'
p772
I33902055
sS'property'
p773
I99475164
sS'technology'
p774
I33484831
sS'bags'
p775
I7157470
sS'different'
p776
I288914691
sS'april'
p777
I105117
sS'bowl'
p778
I16021214
sS'same'
p779
I449091399
sS'dealer'
p780
I11653731
sS'manila'
p781
I355295
sS'sams'
p782
I250013
sS'stepped'
p783
I15970768
sS'status'
p784
I47997403
sS'oil'
p785
I69003386
sS'centuries'
p786
I23842746
sS'arctic'
p787
I1061008
sS'driver'
p788
I20466857
sS'weed'
p789
I8899358
sS'director'
p790
I44540974
sS'changing'
p791
I28981334
sS'renewable'
p792
I1008086
sS'theater'
p793
I14406690
sS'largely'
p794
I35525607
sS'patchwork'
p795
I701301
sS'ranch'
p796
I8890519
sS'roughly'
p797
I10289987
sS'pacing'
p798
I2227650
sS'severe'
p799
I46029749
sS'without'
p800
I324359920
sS'model'
p801
I127745787
sS'being'
p802
I426588831
sS'rest'
p803
I259162825
sS'kiln'
p804
I1768226
sS'touch'
p805
I69299592
sS'speed'
p806
I54243603
sS'announcement'
p807
I6954526
sS'death'
p808
I163455881
sS'generator'
p809
I7423346
sS'bowie'
p810
I149150
sS'seems'
p811
I109096348
sS'blog'
p812
I1135100
sS'tranberg'
p813
I0
sS'lets'
p814
I5166541
sS'setting'
p815
I50848415
sS'pile'
p816
I16899281
sS'heavier'
p817
I4967428
sS'styles'
p818
I10137487
sS'around'
p819
I190989490
sS'read'
p820
I358248103
sS'mop'
p821
I2091152
sS'virginia'
p822
I388195
sS'dark'
p823
I107848919
sS'chainsaw'
p824
I92508
sS'world'
p825
I308243138
sS'railroad'
p826
I25235803
sS'fortune'
p827
I22928053
sS'photographs'
p828
I10564568
sS'annually'
p829
I9242749
sS'manglings'
p830
I2080
sS'laughing'
p831
I12633154
sS'tower'
p832
I18694359
sS'rubys'
p833
I882
sS'images'
p834
I27800826
sS'memories'
p835
I12149379
sS'dauntingly'
p836
I20767
sS'stops'
p837
I8180825
sS'conservative'
p838
I17493984
sS'critical'
p839
I48809480
sS'exit'
p840
I10735758
sS'inhabited'
p841
I4195329
sS'knife'
p842
I14044451
sS'wheat'
p843
I14495518
sS'business'
p844
I174204818
sS'manufactured'
p845
I7487330
sS'chefs'
p846
I571758
sS'1936'
p847
I14533914
sS'sixty'
p848
I17745251
sS'prepared'
p849
I52086611
sS'on'
p850
I5740076873
sS'cornucopia'
p851
I272191
sS'island'
p852
I45301425
sS'industry'
p853
I60615999
sS'favorite'
p854
I20248074
sS'generated'
p855
I17508159
sS'chop'
p856
I11681421
sS'stand'
p857
I258732020
sS'act'
p858
I754875053
sS'corals'
p859
I666961
sS'or'
p860
I3685838566
sS'road'
p861
I82557804
sS'lands'
p862
I46666979
sS'aortic'
p863
I3230653
sS'burning'
p864
I20029721
sS'malfunction'
p865
I1185324
sS'whites'
p866
I13257997
sS'image'
p867
I90193105
sS'earring'
p868
I1370866
sS'rising'
p869
I24508857
sS'bedtime'
p870
I1387143
sS'heated'
p871
I10972586
sS'operator'
p872
I23470528
sS'her'
p873
I1913645600
sS'hes'
p874
I21477384
sS'assumed'
p875
I35522039
sS'there'
p876
I1075023656
sS'hed'
p877
I8773946
sS'start'
p878
I173536117
sS'lot'
p879
I80040275
sS'valley'
p880
I25358512
sS'allergic'
p881
I2689166
sS'mornings'
p882
I2217848
sS'enough'
p883
I153938368
sS'buggy'
p884
I1374931
sS'trying'
p885
I59316857
sS'downstairs'
p886
I4187554
sS'faster'
p887
I13364505
sS'october'
p888
I40831
sS'aneurysm'
p889
I2187542
sS'emissions'
p890
I3268572
sS'torso'
p891
I1501046
sS'trips'
p892
I7141602
sS'chaplin'
p893
I7318
sS'gone'
p894
I71527880
sS'migrate'
p895
I4011811
sS'moved'
p896
I64639610
sS'sales'
p897
I44627213
sS'an'
p898
I20508232891
sS'as'
p899
I4993118666
sS'at'
p900
I3149672018
sS'planets'
p901
I4854305
sS'importing'
p902
I1574928
sS'watched'
p903
I26878949
sS'moves'
p904
I18310059
sS'cables'
p905
I3070528
sS'film'
p906
I58908907
sS'again'
p907
I532840907
sS'heather'
p908
I738492
sS'drivers'
p909
I5633387
sS'swords'
p910
I3877002
sS'tight'
p911
I30769594
sS'5'
p912
I1211234977
sS'2006'
p913
I12364704
sS'passerby'
p914
I196867
sS'tankers'
p915
I553636
sS'important'
p916
I217159357
sS'included'
p917
I60037771
sS'building'
p918
I106322187
sS'curve'
p919
I49153455
sS'babbitt'
p920
I77594
sS'mass'
p921
I98309971
sS'wielding'
p922
I681592
sS'axles'
p923
I460236
sS'all'
p924
I1750175325
sS'infestations'
p925
I258402
sS'kattegat'
p926
I0
sS'ladders'
p927
I1032480
sS'debris'
p928
I4085030
sS'ron'
p929
I1504949
sS'hunting'
p930
I13964464
sS'tv'
p931
I1282918
sS'to'
p932
I16033355221
sS'aaron'
p933
I18476
sS'shaftway'
p934
I4608
sS'woman'
p935
I137877665
sS'returned'
p936
I62547758
sS'straightforward'
p937
I5513566
sS'sitting'
p938
I34775630
sS'very'
p939
I515446009
sS'richtig'
p940
I60176
sS'fall'
p941
I137725143
sS'bubbles'
p942
I2880124
sS'difference'
p943
I127531154
sS'treating'
p944
I9033971
sS'cable'
p945
I15347435
sS'mild'
p946
I18212572
sS'jrgen'
p947
I0
sS'small'
p948
I296837654
sS'approximately'
p949
I29500359
sS'ten'
p950
I324437859
sS'streets'
p951
I26125153
sS'grsofwar'
p952
I0
sS'past'
p953
I148282116
sS'rate'
p954
I173849914
sS'design'
p955
I166105025
sS'creatures'
p956
I12522375
sS'what'
p957
I776219210
sS'imported'
p958
I8009463
sS'importer'
p959
I1390594
sS'sur'
p960
I550237147
sS'learned'
p961
I57383571
sS'contrast'
p962
I50683483
sS'movement'
p963
I109039773
sS'full'
p964
I203743205
sS'compressed'
p965
I4902694
sS'november'
p966
I43772
sS'observing'
p967
I7879314
sS'search'
p968
I59256132
sS'stretching'
p969
I5716328
sS'experience'
p970
I181441876
sS'amount'
p971
I135263754
sS'social'
p972
I209466891
sS'runoff'
p973
I1531074
sS'narrow'
p974
I46547737
sS'via'
p975
I28874108
sS'shorthand'
p976
I1351755
sS'family'
p977
I190822063
sS'suddenly'
p978
I41584678
sS'africa'
p979
I406491
sS'ask'
p980
I260902301
sS'chunks'
p981
I1487615
sS'extinction'
p982
I4326060
sS'armed'
p983
I19117258
sS'conventional'
p984
I19201617
sS'eye'
p985
I252918163
sS'culinary'
p986
I973350
sS'epicboy'
p987
I0
sS'two'
p988
I710750490
sS'injury'
p989
I26898924
sS'more'
p990
I1110040283
sS'teen'
p991
I12920144
sS'diamond'
p992
I8876560
sS'door'
p993
I134131464
sS'company'
p994
I107554757
sS'site'
p995
I76229126
sS'stick'
p996
I29055489
sS'particular'
p997
I200968031
sS'known'
p998
I175752388
sS'mellow'
p999
I1953520
sS'mounted'
p1000
I13421702
sS'producing'
p1001
I23337358
sS'town'
p1002
I119544131
sS'none'
p1003
I59768056
sS'hour'
p1004
I167678159
sS'recall'
p1005
I36086488
sS'rammings'
p1006
I1484
sS'nebraska'
p1007
I4479
sS'specialized'
p1008
I10502912
sS'impacts'
p1009
I3351524
sS'brown'
p1010
I38427925
sS'epics'
p1011
I636100
sS'share'
p1012
I107190936
sS'states'
p1013
I96016747
sS'pushed'
p1014
I19127270
sS'rainstorm'
p1015
I353292
sS'sense'
p1016
I157261490
sS'cows'
p1017
I6364516
sS'sharp'
p1018
I44694825
sS'airplane'
p1019
I6772728
sS'dress'
p1020
I60302935
sS'species'
p1021
I68269712
sS'terrestrial'
p1022
I3025405
sS'information'
p1023
I177625454
sS'rather'
p1024
I175518070
sS'glowing'
p1025
I4864571
sS'occasionally'
p1026
I21968747
sS'earnings'
p1027
I13129015
sS'speeding'
p1028
I1531656
sS'waved'
p1029
I6186160
sS'plant'
p1030
I129649619
sS'floor'
p1031
I61329035
sS'waves'
p1032
I21808271
sS'response'
p1033
I91438361
sS'a'
p1034
I58222666312
sS'short'
p1035
I176434272
sS'cooperatives'
p1036
I1705305
sS'deserted'
p1037
I6841959
sS'coal'
p1038
I32998926
sS'playing'
p1039
I29972287
sS'september'
p1040
I32206
sS'bladesmiths'
p1041
I1166
sS'trade'
p1042
I97090172
sS'held'
p1043
I133382011
sS'attitude'
p1044
I55325987
sS'already'
p1045
I135230242
sS'through'
p1046
I539340367
sS'turbine'
p1047
I3604527
sS'its'
p1048
I1067571913
sS'golfing'
p1049
I255686
sS'25'
p1050
I268438574
sS'style'
p1051
I67718970
sS'rapidly'
p1052
I33738629
sS'late'
p1053
I317546803
sS'resort'
p1054
I15643125
sS'travelling'
p1055
I4541845
sS'might'
p1056
I321798878
sS'colleague'
p1057
I17826230
sS'someone'
p1058
I54794038
sS'entire'
p1059
I120560159
sS'unusable'
p1060
I317561
sS'walls'
p1061
I39298318
sS'party'
p1062
I107402674
sS'foot'
p1063
I87147653
sS'instructions'
p1064
I21551549
sS'feet'
p1065
I116626869
sS'always'
p1066
I218789622
sS'buffing'
p1067
I128379
sS'fairs'
p1068
I1292782
sS'stopped'
p1069
I40105277
sS'found'
p1070
I389953866
sS'barrels'
p1071
I4216077
sS'week'
p1072
I136227947
sS'bladelike'
p1073
I24303
sS'restless'
p1074
I7833293
sS'weight'
p1075
I78728651
sS'house'
p1076
I258798487
sS'energy'
p1077
I87200662
sS'exorbitant'
p1078
I984230
sS'persona'
p1079
I148953422
sS'really'
p1080
I117266788
sS'since'
p1081
I217190198
sS'projected'
p1082
I7795046
sS'hydraulic'
p1083
I3493960
sS'safeties'
p1084
I43955
sS'safety'
p1085
I31174180
sS'hill'
p1086
I43621359
sS'highway'
p1087
I13544757
sS'ringling'
p1088
I454
sS'dirt'
p1089
I18936785
sS'friday'
p1090
I41554
sS'houses'
p1091
I39466730
sS'base'
p1092
I214073856
sS'put'
p1093
I223163372
sS'attendant'
p1094
I8164671
sS'earliest'
p1095
I15860912
sS'prefab'
p1096
I489074
sS'terribly'
p1097
I4581137
sS'american'
p1098
I1326102
sS'expecting'
p1099
I6477629
sS'circuit'
p1100
I34587363
sS'olympia'
p1101
I26264
sS'number'
p1102
I347378201
sS'industrially'
p1103
I399318
sS'sailor'
p1104
I9554419
sS'talked'
p1105
I23135566
sS'done'
p1106
I159715959
sS'least'
p1107
I160307816
sS'climbing'
p1108
I5960611
sS'tougher'
p1109
I1008788
sS'story'
p1110
I103484038
sS'temperature'
p1111
I79052244
sS'guaranteeing'
p1112
I977258
sS'twenty'
p1113
I88500860
sS'swipe'
p1114
I579986
sS'rails'
p1115
I3404679
sS'hollows'
p1116
I942388
sS'passed'
p1117
I81558824
sS'hundred'
p1118
I109879013
sS'store'
p1119
I71089584
sS'selling'
p1120
I19005786
sS'trapped'
p1121
I4989704
sS'park'
p1122
I32516306
sS'rifle'
p1123
I11523676
sS'believe'
p1124
I178927842
sS'convinced'
p1125
I18730979
sS'kind'
p1126
I206885334
sS'b'
p1127
I21278356307
sS'determines'
p1128
I8887502
sS'greg'
p1129
I998717
sS'toward'
p1130
I177901392
sS'remembers'
p1131
I3749865
sS'alongside'
p1132
I6249511
sS'ager'
p1133
I851777
sS'orders'
p1134
I35814755
sS'showcased'
p1135
I127557
sS'transference'
p1136
I2084656
sS'also'
p1137
I678583292
sS'swordsmen'
p1138
I89608
sS'play'
p1139
I230563754
sS'experienced'
p1140
I27947520
sS'reach'
p1141
I147738112
sS'cigarette'
p1142
I11556787
sS'strongest'
p1143
I7700303
sS'equatorial'
p1144
I1363161
sS'dissolves'
p1145
I1923246
sS'snapping'
p1146
I1422485
sS'rockefeller'
p1147
I3717
sS'_START_'
p1148
I0
sS'tongs'
p1149
I724279
sS'ennoble'
p1150
I753622
sS'phenomenon'
p1151
I17196032
sS'stunned'
p1152
I3186185
sS'nasdaq'
p1153
I1920
sS'impact'
p1154
I39394929
sS'wolfe'
p1155
I100573
sS'sluggishly'
p1156
I202289
sS'pretty'
p1157
I37634799
sS'inadvisable'
p1158
I303972
sS'his'
p1159
I2927444749
sS'hit'
p1160
I52654573
sS'meanwhile'
p1161
I4577979
sS'beams'
p1162
I6357513
sS'express'
p1163
I190234266
sS'trees'
p1164
I49605384
sS'furnaces'
p1165
I2104168
sS'longest'
p1166
I4993325
sS'during'
p1167
I252319121
sS'silk'
p1168
I16022180
sS'him'
p1169
I1235552987
sS'molten'
p1170
I2207362
sS'spikes'
p1171
I2031963
sS'gloves'
p1172
I4701153
sS'rumored'
p1173
I822016
sS'bars'
p1174
I12149387
sS'set'
p1175
I401747299
sS'art'
p1176
I318253561
sS'throwing'
p1177
I8878340
sS'arrives'
p1178
I4661208
sS'culture'
p1179
I81133575
sS'see'
p1180
I1169716920
sS'are'
p1181
I2852332571
sS'sea'
p1182
I288790570
sS'close'
p1183
I230383671
sS'arm'
p1184
I219033979
sS'barn'
p1185
I8875400
sS'currently'
p1186
I14211222
sS'fans'
p1187
I5453948
sS'won'
p1188
I123136512
sS'various'
p1189
I126131709
sS'probably'
p1190
I106838367
sS'available'
p1191
I101246517
sS'recently'
p1192
I34281555
sS'sold'
p1193
I95988981
sS'incident'
p1194
I32270665
sS'invisible'
p1195
I9150346
sS'bronze'
p1196
I7317064
sS'abruptly'
p1197
I6226701
sS'both'
p1198
I357362796
sS'last'
p1199
I253376524
sS'annual'
p1200
I41906688
sS'stoplight'
p1201
I127900
sS'load'
p1202
I54529281
sS'point'
p1203
I367349896
sS'sky'
p1204
I32718898
sS'community'
p1205
I91489185
sS'likes'
p1206
I7954362
sS'church'
p1207
I114491327
sS'steels'
p1208
I1645128
sS'throughout'
p1209
I60574629
sS'expensive'
p1210
I17400844
sS'decline'
p1211
I32838578
sS'described'
p1212
I87819723
sS'whom'
p1213
I124253624
sS'describes'
p1214
I20145139
sS'collected'
p1215
I23186003
sS'brick'
p1216
I15012389
sS'empty'
p1217
I28098114
sS'assorted'
p1218
I1313451
sS'fire'
p1219
I124701244
sS'gas'
p1220
I82825664
sS'kramers'
p1221
I229
sS'lives'
p1222
I67186934
sS'disruptive'
p1223
I1807881
sS'hardness'
p1224
I3504981
sS'fur'
p1225
I211732967
sS'look'
p1226
I408474426
sS'grainy'
p1227
I248686
sS'governor'
p1228
I24928356
sS'rope'
p1229
I13655104
sS'while'
p1230
I288685664
sS'replaced'
p1231
I21554354
sS'pressed'
p1232
I16909533
sS'error'
p1233
I60032751
sS'fun'
p1234
I348280039
sS'century'
p1235
I117633615
sS'steelmaking'
p1236
I99537
sS'lodged'
p1237
I2917303
sS'ready'
p1238
I63964424
sS'truncheon'
p1239
I150716
sS'shirt'
p1240
I17088666
sS'lengths'
p1241
I6922090
sS'butcher'
p1242
I4205932
sS'virtually'
p1243
I15802902
sS'badgering'
p1244
I115219
sS'conflict'
p1245
I55914445
sS'higher'
p1246
I94404527
sS'development'
p1247
I161884745
sS'strips'
p1248
I5817408
sS'alert'
p1249
I10391945
sS'essences'
p1250
I765281
sS'moment'
p1251
I145631412
sS'levels'
p1252
I58501102
sS'arrived'
p1253
I43618791
sS'aggregate'
p1254
I11948297
sS'nickname'
p1255
I3180583
sS'residents'
p1256
I13796532
sS'recent'
p1257
I87915910
sS'recognized'
p1258
I40903934
sS'obviously'
p1259
I20110383
sS'edge'
p1260
I53829202
sS'chemistry'
p1261
I8257597
sS'pyrometer'
p1262
I193370
sS'shape'
p1263
I73572853
sS'using'
p1264
I124246093
sS'sidebar'
p1265
I409362
sS'letting'
p1266
I9813940
sS'cut'
p1267
I122055968
sS'workers'
p1268
I59472993
sS'jostle'
p1269
I635935
sS'deliberately'
p1270
I8576265
sS'remaining'
p1271
I29922486
sS'emergency'
p1272
I14072085
sS'game'
p1273
I66461124
sS'hallucinations'
p1274
I1645981
sS'ecosystems'
p1275
I1525604
sS'bit'
p1276
I102540081
sS'projects'
p1277
I24814277
sS'shaped'
p1278
I21007863
sS'continue'
p1279
I158227456
sS'yields'
p1280
I11671880
sS'popular'
p1281
I63975925
sS'mcgraw'
p1282
I3087
sS'methods'
p1283
I67842756
sS'brakes'
p1284
I2023488
sS'spring'
p1285
I54877570
sS'fathers'
p1286
I13116741
sS'some'
p1287
I1182270661
sS'back'
p1288
I440141911
sS'trends'
p1289
I9673384
sS'added'
p1290
I78595289
sS'sight'
p1291
I52282923
sS'oscillations'
p1292
I2013711
sS'accomplishment'
p1293
I8871622
sS'pale'
p1294
I27778752
sS'discarded'
p1295
I4140690
sS'gradually'
p1296
I25677382
sS'ps3coder'
p1297
I0
sS'simmers'
p1298
I50007
sS'per'
p1299
I1762485713
sS'connecting'
p1300
I7713546
sS'eliminate'
p1301
I22001497
sS'tends'
p1302
I15197226
sS'epic'
p1303
I7134092
sS'either'
p1304
I161189377
sS'be'
p1305
I9037504760
sS'dehydrate'
p1306
I747396
sS'run'
p1307
I165205178
sS'idealistic'
p1308
I1633514
sS'performed'
p1309
I37591906
sS'aloft'
p1310
I2078526
sS'nowhere'
p1311
I8161798
sS'intense'
p1312
I22140968
sS'anything'
p1313
I102721917
sS'most'
p1314
I587742848
sS'soft'
p1315
I79732956
sS'piled'
p1316
I3896650
sS'range'
p1317
I89757680
sS'360s'
p1318
I11765
sS'into'
p1319
I879792084
sS'within'
p1320
I219399137
sS'nonsense'
p1321
I5372940
sS'richtigs'
p1322
I387
sS'eleven'
p1323
I16925257
sS'jameson'
p1324
I14169
sS'fast'
p1325
I68842947
sS'custom'
p1326
I80095149
sS'manufacture'
p1327
I41753242
sS'himself'
p1328
I235749620
sS'hoped'
p1329
I20701177
sS'link'
p1330
I54984481
sS'reef'
p1331
I4233839
sS'line'
p1332
I312491351
sS'up'
p1333
I1337721708
sS'us'
p1334
I1633168215
sS'preindustrial'
p1335
I263941
sS'strandings'
p1336
I16704
sS'called'
p1337
I254601654
sS'ordered'
p1338
I35095647
sS'entrance'
p1339
I21787483
sS'single'
p1340
I118411139
sS'unwise'
p1341
I2408151
sS'decapitations'
p1342
I9904
sS'occasional'
p1343
I34859166
sS'swath'
p1344
I1055462
sS'forge'
p1345
I39896960
sS'aprons'
p1346
I530889
sS'manhattan'
p1347
I13497
sS'elements'
p1348
I62798935
sS'luxurious'
p1349
I2908756
sS'meaning'
p1350
I91568362
sS'ago'
p1351
I70776176
sS'dvd'
p1352
I27450
sS'walked'
p1353
I42403776
sS'2002'
p1354
I25551407
sS'2003'
p1355
I23688860
sS'2001'
p1356
I27489241
sS'attaining'
p1357
I2570967
sS'2005'
p1358
I16566769
sS'having'
p1359
I166764306
sS'once'
p1360
I173329897
sS'code'
p1361
I45562972
sS'melts'
p1362
I1697612
sS'illustrated'
p1363
I20104177
sS'go'
p1364
I1715213589
sS'seemed'
p1365
I114137541
sS'metallurgy'
p1366
I588750
sS'oclock'
p1367
I98292
sS'include'
p1368
I180000016
sS'continued'
p1369
I86829751
sS'severely'
p1370
I9326390
sS'button'
p1371
I23512342
sS'noted'
p1372
I52226005
sS'hardening'
p1373
I1991425
sS'sensation'
p1374
I18645882
sS'video'
p1375
I16952200
sS'picked'
p1376
I21545114
sS'elise'
p1377
I6894
sS'acid'
p1378
I91921538
sS'folk'
p1379
I24924628
sS'power'
p1380
I337244455
sS'cell'
p1381
I162732537
sS'experiment'
p1382
I83721158
sS'nicholas'
p1383
I7413
sS'led'
p1384
I78456147
sS'degree'
p1385
I101430996
sS'exchange'
p1386
I52966266
sS'commercial'
p1387
I41760227
sS'believed'
p1388
I48244060
sS'let'
p1389
I309309944
sS'fifteen'
p1390
I29464835
sS'great'
p1391
I544257324
sS'30'
p1392
I266911839
sS'metre'
p1393
I2967649
sS'bladesmith'
p1394
I2330
sS'leaving'
p1395
I42708133
sS'popcorn'
p1396
I844258
sS'climb'
p1397
I25593070
sS'makes'
p1398
I95090458
sS'thats'
p1399
I169936
sS'win'
p1400
I304215008
sS'nantucket'
p1401
I847
sS'privately'
p1402
I5213009
sS'ninth'
p1403
I6082733
sS'tools'
p1404
I23950306
sS'standing'
p1405
I48780845
sS'use'
p1406
I897825213
sS'from'
p1407
I2424766227
sS'consumption'
p1408
I19852440
sS'remains'
p1409
I49505798
sS'next'
p1410
I159870010
sS'few'
p1411
I252706548
sS'sort'
p1412
I75795459
sS'popped'
p1413
I2064177
sS'journalists'
p1414
I3690894
sS'started'
p1415
I64579025
sS'detects'
p1416
I815555
sS'this'
p1417
I2050407442
sS'assumptions'
p1418
I13097650
sS'thin'
p1419
I719665843
sS'of'
p1420
I22598800251
sS'closing'
p1421
I13768585
sS'didnt'
p1422
I268
sS'spyder'
p1423
I3583
sS'bend'
p1424
I16480433
sS'control'
p1425
I217976437
sS'slid'
p1426
I23973325
sS'do'
p1427
I2687160201
sS'lock'
p1428
I29435043
sS'high'
p1429
I461815370
sS'weve'
p1430
I31510
sS'something'
p1431
I178698856
sS'rods'
p1432
I5585991
sS'united'
p1433
I14990743
sS'sit'
p1434
I286455332
sS'six'
p1435
I152839114
sS'regions'
p1436
I27251157
sS'animal'
p1437
I94245761
sS'instead'
p1438
I65365196
sS'mysteries'
p1439
I4747908
sS'blocks'
p1440
I15479814
sS'watch'
p1441
I94820660
sS'realized'
p1442
I30734303
sS'lines'
p1443
I86292440
sS'manganese'
p1444
I2655023
sS'chief'
p1445
I80596823
sS'alloy'
p1446
I8381059
sS'lined'
p1447
I8656215
sS'unsolved'
p1448
I829980
sS'holds'
p1449
I23488993
sS'rutted'
p1450
I263415
sS'including'
p1451
I107468319
sS'looks'
p1452
I34877782
sS'brittle'
p1453
I2665104
sS'la'
p1454
I2570348176
sS'acres'
p1455
I17965967
sS'degrees'
p1456
I25713182
sS'orange'
p1457
I14580445
sS'covered'
p1458
I51319159
sS'spreading'
p1459
I9041487
sS'fourth'
p1460
I34677478
sS'auto'
p1461
I84154845
sS'practice'
p1462
I121582832
sS'cutting'
p1463
I20391804
sS'legendary'
p1464
I3025638
sS'front'
p1465
I112145655
sS'day'
p1466
I545591266
sS'masters'
p1467
I11142994
sS'frayed'
p1468
I675828
sS'hallmarks'
p1469
I387227
sS'unpredictable'
p1470
I2522738
sS'truth'
p1471
I95157005
sS'beneath'
p1472
I27773837
sS'mets'
p1473
I54066
sS'doing'
p1474
I88635660
sS'pantry'
p1475
I977639
sS'society'
p1476
I94240919
sS'our'
p1477
I656324436
sS'special'
p1478
I147513045
sS'out'
p1479
I1170779253
sS'occupied'
p1480
I24783711
sS'exporting'
p1481
I1428269
sS'cause'
p1482
I213452814
sS'red'
p1483
I266046829
sS'achievements'
p1484
I6508764
sS'frank'
p1485
I10266631
sS'loomed'
p1486
I1441992
sS'york'
p1487
I234016
sS'improvisational'
p1488
I175303
sS'early'
p1489
I166417918
sS'receipts'
p1490
I5086807
sS'mainland'
p1491
I4048734
sS'recipes'
p1492
I2382733
sS'times'
p1493
I160208310
sS'south'
p1494
I93121693
sS'mad'
p1495
I570984861
sS'reaches'
p1496
I12320678
sS'such'
p1497
I701028720
sS'reached'
p1498
I69159661
sS'tinkering'
p1499
I371354
sS'myspace'
p1500
I3749
sS'system'
p1501
I364511331
sS'their'
p1502
I1471974832
sS'wrapped'
p1503
I9366331
sS'stars'
p1504
I23685409
sS'exactly'
p1505
I41137498
sS'overwhelming'
p1506
I9249794
sS'steel'
p1507
I32257847
sS'colleagues'
p1508
I13446093
sS'lamborghini'
p1509
I0
sS'samsingers'
p1510
I0
sS'flashed'
p1511
I4393082
sS'bee'
p1512
I1176779791
sS'boyish'
p1513
I1425390
sS'splatter'
p1514
I575749
sS'horrors'
p1515
I2928176
sS'unlikely'
p1516
I10553571
sS'have'
p1517
I2040774381
sS'crank'
p1518
I4269259
sS'drownings'
p1519
I57483
sS'beefy'
p1520
I186139
sS'apparently'
p1521
I34341725
sS'clearly'
p1522
I58291894
sS'soak'
p1523
I6188178
sS'bleached'
p1524
I976804
sS'which'
p1525
I2073735191
sS'blades'
p1526
I4467290
sS'fuels'
p1527
I2494098
sS'rolaids'
p1528
I0
sS'who'
p1529
I1555348606
sS'bleszinskis'
p1530
I0
sS'combustion'
p1531
I5173962
sS'eight'
p1532
I103307365
sS'vise'
p1533
I854539
sS'device'
p1534
I44498136
sS'awe'
p1535
I8200682
sS'why'
p1536
I113760783
sS'consequences'
p1537
I26587979
sS'face'
p1538
I210462212
sS'looked'
p1539
I130536466
sS'scrambled'
p1540
I2093153
sS'normally'
p1541
I18670394
sS'fact'
p1542
I412223538
sS'atmosphere'
p1543
I24201207
sS'selection'
p1544
I33414740
sS'karyn'
p1545
I80
sS'metallurgists'
p1546
I75575
sS'terminate'
p1547
I11144219
sS'anyway'
p1548
I13978433
sS'planning'
p1549
I37206112
sS'fear'
p1550
I105046019
sS'decade'
p1551
I33737171
sS'staff'
p1552
I49385715
sS'sheriff'
p1553
I6400850
sS'with'
p1554
I4389069088
sS'should'
p1555
I618885891
sS'surroundings'
p1556
I6562223
sS'employee'
p1557
I55458035
sS'local'
p1558
I135032579
sS'exchanged'
p1559
I6441322
sS'slows'
p1560
I1038850
sS'handle'
p1561
I38913502
sS'listened'
p1562
I13672289
sS'watching'
p1563
I22971184
sS'beat'
p1564
I42636574
sS'ones'
p1565
I58349421
sS'perfection'
p1566
I11793119
sS'werent'
p1567
I12383
sS'areas'
p1568
I78978135
sS'gray'
p1569
I28063754
sS'shy'
p1570
I6928259
sS'she'
p1571
I1095988761
sS'wish'
p1572
I103303654
sS'national'
p1573
I109266178
sS'wire'
p1574
I33071641
sS'outrageousness'
p1575
I36791
sS'blaster'
p1576
I151317
sS'state'
p1577
I495235168
sS'fifties'
p1578
I2214963
sS'closed'
p1579
I48632958
sS'neither'
p1580
I55114554
sS'ends'
p1581
I32840176
sS'bed'
p1582
I102932114
sS'job'
p1583
I95943105
sS'ripleys'
p1584
I0
sS'ramp'
p1585
I5994162
sS'etc'
p1586
I76685664
sS'wall'
p1587
I105237058
sS'laugh'
p1588
I67970786
sS'table'
p1589
I131488181
sS'withdrawn'
p1590
I6783007
sS'copies'
p1591
I15832325
sS'cent'
p1592
I423842420
sS'upbeat'
p1593
I477373
sS'recounts'
p1594
I1044670
sS'nickel'
p1595
I4966062
sS'finished'
p1596
I32849781
sS'smoking'
p1597
I10522784
sS'atmospheric'
p1598
I5375086
sS'value'
p1599
I267105202
sS'will'
p1600
I1176020403
sS'supply'
p1601
I56299068
sS'ringing'
p1602
I4182307
sS'almost'
p1603
I158955481
sS'surprisingly'
p1604
I5744298
sS'helped'
p1605
I31547465
sS'counterweight'
p1606
I379362
sS'blacksmithing'
p1607
I91601
sS'claimed'
p1608
I23447783
sS'sits'
p1609
I7554226
sS'pit'
p1610
I61262801
sS'began'
p1611
I132422691
sS'parts'
p1612
I89043063
sS'inch'
p1613
I63518586
sS'wakeup'
p1614
I42691
sS'difficult'
p1615
I153292958
sS'injured'
p1616
I11120585
sS'conflicting'
p1617
I5779927
sS'caesar'
p1618
I173705
sS'cubic'
p1619
I8320729
sS'upon'
p1620
I393684310
sS'nightly'
p1621
I1829862
sS'student'
p1622
I161347912
sS'frequently'
p1623
I56495613
sS'lobby'
p1624
I7204660
sS'warming'
p1625
I3123010
sS'off'
p1626
I736702521
sS'center'
p1627
I91592706
sS'i'
p1628
I32117877847
sS'knifeness'
p1629
I0
sS'well'
p1630
I462961498
sS'fighting'
p1631
I24056090
sS'thought'
p1632
I281925141
sS'patterns'
p1633
I33047945
sS'sets'
p1634
I28681294
sS'kramer'
p1635
I15428
sS'half'
p1636
I159348089
sS'detail'
p1637
I92311855
sS'sources'
p1638
I43349519
sS'roomy'
p1639
I440345
sS'rapid'
p1640
I66848578
sS'console'
p1641
I4292397
sS'bell'
p1642
I34908862
sS'smith'
p1643
I1655740
sS'capabilities'
p1644
I7815705
sS'book'
p1645
I240048149
sS'crack'
p1646
I23339895
sS'match'
p1647
I35671187
sS'tests'
p1648
I35698372
sS'taunt'
p1649
I2219874
sS'february'
p1650
I33748
sS'five'
p1651
I149864234
sS'whatever'
p1652
I49472659
sS'immediately'
p1653
I62680187
sS'necessary'
p1654
I139880242
sS'like'
p1655
I702400487
sS'clown'
p1656
I2647321
sS'roth'
p1657
I99010
sS'bulgy'
p1658
I24005
sS'refugees'
p1659
I5139477
sS'page'
p1660
I111162297
sS'backlog'
p1661
I526085
sS'because'
p1662
I405115388
sS'elevators'
p1663
I1337214
sS'underwent'
p1664
I2582508
sS'alive'
p1665
I24315000
sS'hair'
p1666
I75571477
sS'growth'
p1667
I83728295
sS'ablaze'
p1668
I568842
sS'empire'
p1669
I17123176
sS'blade'
p1670
I13032835
sS'happens'
p1671
I21414222
sS'jeremy'
p1672
I6800
sS'broad'
p1673
I73680032
sS'grinding'
p1674
I3930599
sS'does'
p1675
I303678615
sS'glacial'
p1676
I2387154
sS'slight'
p1677
I70115012
sS'goatee'
p1678
I217884
sS'paper'
p1679
I121744317
sS'pressure'
p1680
I95921967
sS'although'
p1681
I100207982
sS'panel'
p1682
I18687983
sS'about'
p1683
I816874984
sS'rare'
p1684
I53036050
sS'headed'
p1685
I18963933
sS'samsinger'
p1686
I0
sS'clooney'
p1687
I237
sS'introduced'
p1688
I39540180
sS'own'
p1689
I475833496
sS'h3'
p1690
I54314
sS'sharpness'
p1691
I1070616
sS'antnio'
p1692
I0
sS'tiny'
p1693
I17448945
sS'fired'
p1694
I13244634
sS'dumbwaiters'
p1695
I9796
sS'housing'
p1696
I18153658
sS'north'
p1697
I94331829
sS'brand'
p1698
I18309802
sS'sequel'
p1699
I2916964
sS'but'
p1700
I1645817742
sS'strawberries'
p1701
I1432103
sS'related'
p1702
I78034419
sS'squeeze'
p1703
I7132965
sS'he'
p1704
I6173509961
sS'made'
p1705
I541935944
sS'whether'
p1706
I152770681
sS'shrunk'
p1707
I1867407
sS'j'
p1708
I1277806127
sS'below'
p1709
I86471096
sS'stories'
p1710
I37310388
sS'piece'
p1711
I86512129
sS'minutes'
p1712
I68695575
sS'universal'
p1713
I35885120
sS'beetle'
p1714
I3348398
sS'replica'
p1715
I8553891
sS'trailing'
p1716
I2389226
sS'jenna'
p1717
I1259
sS'variety'
p1718
I50686691
sS'forests'
p1719
I10658252
sS'scholarly'
p1720
I5146578
sS'lately'
p1721
I8430578
sS'other'
p1722
I1174515539
sS'acidification'
p1723
I284351
sS'francisco'
p1724
I29736
sS'monday'
p1725
I51816
sS'detractors'
p1726
I567794
sS'pumps'
p1727
I3613274
sS'nintendo'
p1728
I1601
sS'cliff'
p1729
I8097663
sS'lasted'
p1730
I8161604
sS'rural'
p1731
I21936335
sS'accidents'
p1732
I6780049
s.